(dp0
S'x%5Fship%5Fto%5Fzip%5Fus'
p1
S''
p2
sS'.ASPXAUTH'
p3
S'43D24389AC877C87ED5D708506707B296ED25109AA6202E561FD34C526B9921DDE8FDBA92B081245C7D1CECFE1BBDE8285326AB440CCD15C14C89944349A2AE1B6F153F68132417D2189CBA443D004BFFCE8CCB05FD232B83F0F6440EC99C9D30CB9BEB88C5AA4523D933D89FFBBDC21C34C878D542CC37026E4350A61A8030EF5BC1A36A0EE0632EC72AF3BADBF9284C7AFCAEB053F0F20FD4653921A2CBC6FA58E44F387056F69CB03BA99F2A9DBEE7483551E662B3E379854E92B5979B3E8953A978808C8ADB60A6DC45161CBB099EF9BFF84'
p4
sS'CartID'
p5
S'C20774914'
p6
sS'x%5Fship%5Fto%5Fcountry'
p7
S'US'
p8
sS'ASP.NET_SessionId'
p9
S'vgsnllbgrizwtc10thlxtwbb'
p10
sS'HeaderPage'
p11
S'B2C'
p12
sS'mono%5Fpickup'
p13
S'/cart|/checkout/checkoutstep1'
p14
sS'big1p'
p15
S'248686784.0.0000'
p16
sS'SavedLists'
p17
S'C20774914S'
p18
s.