(dp0
S'x%5Fship%5Fto%5Fzip%5Fus'
p1
S''
p2
sS'.ASPXAUTH'
p3
S'B6ECABBBB41A52E2F91C4F56FFF49F2A58CA4EAF3A2376747C1AA6F6DFFAFF57D1D6D4ED2435C9BD616A13EAF058B4E065941A2899968F6DD580A1C1CDDE79A36C15A23827FFE253A58A3A3AF415F70AE90BA13847FA3D12CDA380DE380DEECA7DA7C0037E72C7A6F325B595FEA39BFD019123332F6C4A24883627D7107E56D24A58563CC96AA49310F2B7877C3B54BC24AF88BBE837F8EC132349CA67D3BA044C74314980EBB53619AAC0EA200B1237745D74CF175262085D5488D3C38A84CF1A7424EE6B130529258F137818950C0769D37393'
p4
sS'CartID'
p5
S'C20798890'
p6
sS'x%5Fship%5Fto%5Fcountry'
p7
S'US'
p8
sS'ASP.NET_SessionId'
p9
S'm2qtzuik33nl5yhiau1ya1s5'
p10
sS'HeaderPage'
p11
S'B2C'
p12
sS'mono%5Fpickup'
p13
S'/cart|/checkout/checkoutstep1'
p14
sS'big1p'
p15
S'231909568.0.0000'
p16
sS'SavedLists'
p17
S'C20798890S'
p18
s.