(dp0
S'x%5Fship%5Fto%5Fzip%5Fus'
p1
S''
p2
sS'.ASPXAUTH'
p3
S'40DB0C0CD6625B8AA87D93A9F822DEA8C989B2D6F439D460A099B684AE9327BBD4A5BD31C8BE012F74FA92E7BA3B3DD369849275EC9679E3BCBE64D2E2F68C98B42F08CD9EA9DADA8E810DC602A9A32849148E5002210DD3355A5737C0DD50E2FD34E8260F1A491BDA10FEF905960867CE221DE349B45597D0B7FB2B6C616CDCA94F679AF320EA8B332AE8D9921181EA9F4D726EF3CD0B61BBAD6085B3886D82B3BFAABEBD047DD7E515840A817ED8749B5112977684ED16FECC5287577CB5DE8FEFA11827DFBC8FA6EB1E42DA906E662B4E5E89'
p4
sS'x%5Fship%5Fto%5Fcountry'
p5
S'US'
p6
sS'ASP.NET_SessionId'
p7
S'e5anm5lj1tfqkco0wb5hyt1d'
p8
sS'HeaderPage'
p9
S'B2C'
p10
sS'mono%5Fpickup'
p11
S'//checkout/checkoutstep1|/Cart'
p12
sS'big1p'
p13
S'215132352.0.0000'
p14
sS'SavedLists'
p15
S'C20792801S'
p16
s.