(lp0
(igenerator
School
p1
(dp2
S'website'
p3
S'www.alegent.org'
p4
sS'city'
p5
S'Omaha'
p6
sS'domain'
p7
S'alegent.org'
p8
sS'last_updated'
p9
cdatetime
datetime
p10
(S'\x07\xde\x0c\x0b\x0260\t\xf5\x93'
p11
tp12
Rp13
sS'name'
p14
S'Alegent Health School of Radiologic Technology'
p15
sS'longitude'
p16
F-96.0150994
sS'geocoder_used'
p17
S'geopy.geocoders.osm'
p18
sS'phone'
p19
S'402-398-5527'
p20
sS'state'
p21
S'NE'
p22
sS'address'
p23
S'7500 Mercy Road'
p24
sS'latitude'
p25
F41.2386995
sS'type'
p26
S'Institutional'
p27
sba(igenerator
School
p28
(dp29
g3
S'www.sunyit.edu'
p30
sg5
S'Utica'
p31
sg7
S'sunyit.edu'
p32
sg9
g10
(S'\x07\xde\x0c\x0b\x0264\x07Wl'
p33
tp34
Rp35
sg14
S'SUNY Institute of Technology at Utica - Rome'
p36
sg16
F-82.489472
sg17
S'geopy.geocoders.yandex'
p37
sg19
S'315-792-7100'
p38
sg21
S'NY'
p39
sg23
S'Horatio Street'
p40
sg25
F27.939876
sg26
S'Institutional'
p41
sba(igenerator
School
p42
(dp43
g3
S'www.tm.edu'
p44
sg5
S'Belcourt'
p45
sg7
S'tm.edu'
p46
sg9
g10
(S'\x07\xde\x0c\x0b\x0265\x0c\xca\t'
p47
tp48
Rp49
sg14
S'Turtle Mountain Community College'
p50
sg16
F-99.72497950290102
sg17
S'geopy.geocoders.arcgis'
p51
sg19
S'701-477-7862'
p52
sg21
S'ND'
p53
sg23
S'P.O. Box 340'
p54
sg25
F48.847746611518005
sg26
S'Institutional'
p55
sba(igenerator
School
p56
(dp57
g3
S'pgi.edu'
p58
sg5
S'Encino'
p59
sg7
S'pgi.edu'
p60
sg9
g10
(S'\x07\xde\x0c\x0b\x0267\r\x12C'
p61
tp62
Rp63
sg14
S'Phillips Graduate Institute'
p64
sg16
F-118.50113218490173
sg17
g51
sg19
S'818-386-5600'
p65
sg21
S'CA'
p66
sg23
S'5445 Balboa Blvd'
p67
sg25
F34.16964112893601
sg26
S'Institutional'
p68
sba(igenerator
School
p69
(dp70
g3
S''
p71
sg5
S'Waterbury'
p72
sg7
Nsg9
g10
(S'\x07\xde\x0c\x0b\x0268\x0bx\xfe'
p73
tp74
Rp75
sg14
S'W. F. Kaynor Technical High School'
p76
sg16
F-73.066781293128
sg17
g18
sg19
g71
sg21
S'CT'
p77
sg23
S'43 Tompkins Street'
p78
sg25
F41.57576305
sg26
S'Institutional'
p79
sba(igenerator
School
p80
(dp81
g3
S'www.sandiego-ncme.org'
p82
sg5
S'San Diego'
p83
sg7
S'sandiego-ncme.org'
p84
sg9
g10
(S'\x07\xde\x0c\x0b\x026:\x0cvg'
p85
tp86
Rp87
sg14
S'Montessori Center for Teacher Education'
p88
sg16
F-117.2088423676804
sg17
g51
sg19
g71
sg21
S'CA'
p89
sg23
S'4544 Pocahontas Ave.'
p90
sg25
F32.82522093030275
sg26
S'Institutional'
p91
sba(igenerator
School
p92
(dp93
g3
S'www.UCMT.com'
p94
sg5
S'Salt Lake City'
p95
sg7
S'ucmt.com'
p96
sg9
g10
(S'\x07\xde\x0c\x0b\x027\x01\x03\x0f\x10'
p97
tp98
Rp99
sg14
S'Nevada School of Massage Therapy - Salt Lake City'
p100
sg16
F-111.88175848906229
sg17
g51
sg19
g71
sg21
S'UT'
p101
sg23
S'312 East South Temple'
p102
sg25
F40.76931656031212
sg26
S'Institutional'
p103
sba(igenerator
School
p104
(dp105
g3
S'www.wm.edu'
p106
sg5
S'Williamsburg'
p107
sg7
S'wm.edu'
p108
sg9
g10
(S'\x07\xde\x0c\x0b\x027\x03\x05\\\xe0'
p109
tp110
Rp111
sg14
S'College of William and Mary'
p112
sg16
F-76.70971588637826
sg17
g51
sg19
S'757-221-4000'
p113
sg21
S'VA'
p114
sg23
S'P.O. Box 8795'
p115
sg25
F37.27560260447768
sg26
S'Institutional'
p116
sba(igenerator
School
p117
(dp118
g3
g71
sg5
S'Van Nuys'
p119
sg7
Nsg9
g10
(S'\x07\xde\x0c\x0b\x027\x04\x08\xd8\x17'
p120
tp121
Rp122
sg14
S'Van Nuys Community Adult School'
p123
sg16
F-118.455262862741
sg17
g18
sg19
S'818-778-6000'
p124
sg21
S'CA'
p125
sg23
S'6535 Cedros Avenue'
p126
sg25
F34.18910135
sg26
S'Institutional'
p127
sba(igenerator
School
p128
(dp129
g3
S'www.gbcnv.edu'
p130
sg5
S'Elko'
p131
sg7
S'gbcnv.edu'
p132
sg9
g10
(S'\x07\xde\x0c\x0b\x027\x05\x07\xa7|'
p133
tp134
Rp135
sg14
S'Great Basin College'
p136
sg16
F-115.7703778
sg17
g18
sg19
S'775-738-8493'
p137
sg21
S'NV'
p138
sg23
S'1500 College Pky'
p139
sg25
F40.842995
sg26
S'Institutional'
p140
sba(igenerator
School
p141
(dp142
g3
g71
sg5
S'Washington'
p143
sg7
Nsg9
g10
(S'\x07\xde\x0c\x0b\x027\x07\x084\xc8'
p144
tp145
Rp146
sg14
S'Sherman Kent School'
p147
sg16
F-61.505272426999625
sg17
g51
sg19
g71
sg21
S'DC'
p148
sg23
S'Building LF5, Room 2300'
p149
sg25
F-31.243006314999604
sg26
S'Institutional'
p150
sba(igenerator
School
p151
(dp152
g3
g71
sg5
S'Saint George'
p153
sg7
Nsg9
g10
(S'\x07\xde\x0c\x0b\x027\t\t\xac\x1b'
p154
tp155
Rp156
sg14
S'Hairitage Hair Academy'
p157
sg16
F-113.60678139494473
sg17
g51
sg19
S'435-673-5233'
p158
sg21
S'UT'
p159
sg23
S'1487 South Silicon Way, Suite A3'
p160
sg25
F37.083037668055
sg26
S'Institutional'
p161
sba(igenerator
School
p162
(dp163
g3
S'www.mid-america.edu'
p164
sg5
S'Jeffersonville'
p165
sg7
S'mid-america.edu'
p166
sg9
g10
(S'\x07\xde\x0c\x0b\x027\x0b\x0e\x89\xca'
p167
tp168
Rp169
sg14
S'Mid-America College of Funeral Service'
p170
sg16
F-85.7443147929925
sg17
g51
sg19
S'812-288-8878'
p171
sg21
S'IN'
p172
sg23
S'3111 Hamburg Pke'
p173
sg25
F38.3120239645354
sg26
S'Institutional'
p174
sba(igenerator
School
p175
(dp176
g3
S'www.icsinstitute.com'
p177
sg5
S'Allentown'
p178
sg7
S'icsinstitute.com'
p179
sg9
g10
(S'\x07\xde\x0c\x0b\x027\r\x0f,0'
p180
tp181
Rp182
sg14
S'Pennsylvania School of Business'
p183
sg16
F-75.46559457722714
sg17
g51
sg19
S'610-264-8029'
p184
sg21
S'PA'
p185
sg23
S'406 W Hamilton St'
p186
sg25
F40.60389405806541
sg26
S'Institutional'
p187
sba(igenerator
School
p188
(dp189
g3
S'www.paloaltou.edu'
p190
sg5
S'Palo Alto'
p191
sg7
S'paloaltou.edu'
p192
sg9
g10
(S'\x07\xde\x0c\x0b\x027\x0f\x05\x10\xd8'
p193
tp194
Rp195
sg14
S'Palo Alto University'
p196
sg16
F-122.18786015632048
sg17
g51
sg19
S'800-818-6136'
p197
sg21
S'CA'
p198
sg23
S'1791 Arastadero Road'
p199
sg25
F37.38461455491887
sg26
S'Institutional'
p200
sba(igenerator
School
p201
(dp202
g3
g71
sg5
S'Forest Hills'
p203
sg7
Nsg9
g10
(S"\x07\xde\x0c\x0b\x027\x14\r'`"
p204
tp205
Rp206
sg14
S'Emerging Technologies Institute'
p207
sg16
F-73.83360070400846
sg17
g51
sg19
S'718-261-1272'
p208
sg21
S'NY'
p209
sg23
S'116-16 Queens Blvd., Suite 200'
p210
sg25
F40.7158722271227
sg26
S'Institutional'
p211
sba(igenerator
School
p212
(dp213
g3
S'www.inglewood.k12.ca'
p214
sg5
S'Inglewood'
p215
sg7
S'k12.ca'
p216
sg9
g10
(S'\x07\xde\x0c\x0b\x027\x16\x0eW?'
p217
tp218
Rp219
sg14
S'Inglewood Community Adult School'
p220
sg16
F-118.35456885177041
sg17
g51
sg19
S'310-330-5225'
p221
sg21
S'CA'
p222
sg23
S'106 E. Manchester Boulevard, Suite 350'
p223
sg25
F33.961723398217316
sg26
S'Institutional'
p224
sba(igenerator
School
p225
(dp226
g3
S'www.pmi.edu'
p227
sg5
S'Albuquerque'
p228
sg7
S'pmi.edu'
p229
sg9
g10
(S'\x07\xde\x0c\x0b\x027\x18\x00\xef\x97'
p230
tp231
Rp232
sg14
S'Pima Medical Institute - Albuquerque'
p233
sg16
F-106.6768492
sg17
g18
sg19
S'505-881-1314'
p234
sg21
S'NM'
p235
sg23
S'8601 Golf Course Road NW'
p236
sg25
F35.2162388
sg26
S'Institutional'
p237
sba(igenerator
School
p238
(dp239
g3
g71
sg5
S'Memphis'
p240
sg7
Nsg9
g10
(S'\x07\xde\x0c\x0b\x027\x19\x03\xa2\xfc'
p241
tp242
Rp243
sg14
S'Tennessee School of Massage'
p244
sg16
F-89.9033044
sg17
g18
sg19
g71
sg21
S'TN'
p245
sg23
S'556 Colonial'
p246
sg25
F35.0964329
sg26
S'Institutional'
p247
sba(igenerator
School
p248
(dp249
g3
S'BeautyCareers.com'
p250
sg5
S'Garden Grove'
p251
sg7
S'beautycareers.com'
p252
sg9
g10
(S'\x07\xde\x0c\x0b\x027\x1b\x04\xf8\x8f'
p253
tp254
Rp255
sg14
S'Career Academy of Beauty'
p256
sg16
F-118.03084910300299
sg17
g51
sg19
S'714-897-3010'
p257
sg21
S'CA'
p258
sg23
S'12471 Valley View'
p259
sg25
F33.78070338175672
sg26
S'Institutional'
p260
sba(igenerator
School
p261
(dp262
g3
S'www.nau.edu'
p263
sg5
S'Flagstaff'
p264
sg7
S'nau.edu'
p265
sg9
g10
(S'\x07\xde\x0c\x0b\x027\x1d\x03\xc4\x8d'
p266
tp267
Rp268
sg14
S'Northern Arizona University'
p269
sg16
F-111.65129819095802
sg17
g51
sg19
S'928-523-9011'
p270
sg21
S'AZ'
p271
sg23
S'P.O. Box 4092'
p272
sg25
F35.1982040061111
sg26
S'Institutional'
p273
sba(igenerator
School
p274
(dp275
g3
S'www.unilatina.edu/'
p276
sg5
S'Miramar'
p277
sg7
S'unilatina.edu'
p278
sg9
g10
(S'\x07\xde\x0c\x0b\x027"\x01\x1e\xe6'
p279
tp280
Rp281
sg14
S'Unilatina International College'
p282
sg16
F-80.2814324
sg17
g18
sg19
S'954-607-4344'
p283
sg21
S'FL'
p284
sg23
S'3130 Commerce Parkway'
p285
sg25
F25.9751671
sg26
S'Institutional'
p286
sba(igenerator
School
p287
(dp288
g3
S'www.www.lac.edu'
p289
sg5
S'Los Angeles'
p290
sg7
S'lac.edu'
p291
sg9
g10
(S'\x07\xde\x0c\x0b\x027$\x03b+'
p292
tp293
Rp294
sg14
S'LA College International'
p295
sg16
F-118.2920091674884
sg17
g51
sg19
S'213-381-3333-100'
p296
sg21
S'CA'
p297
sg23
S'3200 Wilshire Blvd. #400'
p298
sg25
F34.06176335309732
sg26
S'Institutional'
p299
sba(igenerator
School
p300
(dp301
g3
S'www.springhouse.com'
p302
sg5
S'Exton'
p303
sg7
S'springhouse.com'
p304
sg9
g10
(S'\x07\xde\x0c\x0b\x027&\x04\r\xfd'
p305
tp306
Rp307
sg14
S'Springhouse Education and Consulting Services - Exton'
p308
sg16
F-75.68243788320092
sg17
g51
sg19
g71
sg21
S'PA'
p309
sg23
S'770 Pennsylvania Drive, Suite 120'
p310
sg25
F40.06980682712447
sg26
S'Institutional'
p311
sba(igenerator
School
p312
(dp313
g3
S'www.uprs.edu'
p314
sg5
S'Los Angeles'
p315
sg7
S'uprs.edu'
p316
sg9
g10
(S'\x07\xde\x0c\x0b\x027(\x06\x1c#'
p317
tp318
Rp319
sg14
S'University of Philosophical Research'
p320
sg16
F-118.27745815297067
sg17
g51
sg19
S'800-548-4062'
p321
sg21
S'CA'
p322
sg23
S'3910 Los Feliz Boulevard'
p323
sg25
F34.11360451163995
sg26
S'Institutional'
p324
sba(igenerator
School
p325
(dp326
g3
g71
sg5
S'Aston'
p327
sg7
Nsg9
g10
(S'\x07\xde\x0c\x0b\x027*\x06\x92\xaf'
p328
tp329
Rp330
sg14
S'Venus Beauty Academy'
p331
sg16
F-75.42296166974444
sg17
g51
sg19
g71
sg21
S'PA'
p332
sg23
S'600 Turner Industrial Drive'
p333
sg25
F39.85555220796914
sg26
S'Institutional'
p334
sba(igenerator
School
p335
(dp336
g3
g71
sg5
S'Denville'
p337
sg7
Nsg9
g10
(S'\x07\xde\x0c\x0b\x027,\x07\xde\xd6'
p338
tp339
Rp340
sg14
S'Morris County Vocational School'
p341
sg16
F-74.47979565044812
sg17
g51
sg19
g71
sg21
S'NJ'
p342
sg23
S'400 East Main Street'
p343
sg25
F40.87956919746159
sg26
S'Institutional'
p344
sba(igenerator
School
p345
(dp346
g3
S'www.augustana.edu'
p347
sg5
S'Rock Island'
p348
sg7
S'augustana.edu'
p349
sg9
g10
(S'\x07\xde\x0c\x0b\x027-\x03^\xcb'
p350
tp351
Rp352
sg14
S'Augustana College'
p353
sg16
F-90.4851472
sg17
g18
sg19
S'309-794-7000'
p354
sg21
S'IL'
p355
sg23
S'639 38th St'
p356
sg25
F41.471665
sg26
S'Institutional'
p357
sba(igenerator
School
p358
(dp359
g3
S'http://disam.csd.mil'
p360
sg5
S'Wright-Patterson AFB'
p361
sg7
Nsg9
g10
(S'\x07\xde\x0c\x0b\x027/\x08\xf7\xb4'
p362
tp363
Rp364
sg14
S'Defense Institute of Security Assistance Management'
p365
sg16
F-84.57006779858926
sg17
g51
sg19
S'937-255-5850'
p366
sg21
S'OH'
p367
sg23
S'2335 Seventh Street'
p368
sg25
F36.70638281551561
sg26
S'Institutional'
p369
sba(igenerator
School
p370
(dp371
g3
S'www.familyoffaithcollege.com'
p372
sg5
S'Shawnee'
p373
sg7
S'familyoffaithcollege.com'
p374
sg9
g10
(S'\x07\xde\x0c\x0b\x0270\x0c\x98&'
p375
tp376
Rp377
sg14
S'Family of Faith College'
p378
sg16
F-96.89821596769201
sg17
g51
sg19
S'405-273-5331'
p379
sg21
S'OK'
p380
sg23
S'30 Kinville'
p381
sg25
F35.45825425323227
sg26
S'Institutional'
p382
sba(igenerator
School
p383
(dp384
g3
g71
sg5
S'Colorado Springs'
p385
sg7
Nsg9
g10
(S'\x07\xde\x0c\x0b\x0272\x00\xb1\x1c'
p386
tp387
Rp388
sg14
S'Paul Mitchell the School - Colorado Springs'
p389
sg16
F-104.828367238968
sg17
g18
sg19
g71
sg21
S'CO'
p390
sg23
S'118 West Colorado Avenue'
p391
sg25
F38.83289755
sg26
S'Institutional'
p392
sba(igenerator
School
p393
(dp394
g3
S'www.beonair.com'
p395
sg5
S'Valley View'
p396
sg7
S'beonair.com'
p397
sg9
g10
(S'\x07\xde\x0c\x0b\x0273\x040\xc1'
p398
tp399
Rp400
sg14
S'Ohio Center for Broadcasting'
p401
sg16
F-81.6175771
sg17
g18
sg19
S'216-447-9117'
p402
sg21
S'OH'
p403
sg23
S'9000 Sweet Valley Dr'
p404
sg25
F41.3963619
sg26
S'Institutional'
p405
sba(igenerator
School
p406
(dp407
g3
g71
sg5
S'Hazleton'
p408
sg7
Nsg9
g10
(S'\x07\xde\x0c\x0b\x0275\x06L\xb6'
p409
tp410
Rp411
sg14
S'Jolie Health and Beauty Academy of Hazelton'
p412
sg16
F-75.97835652623189
sg17
g51
sg19
S'570-459-5501'
p413
sg21
S'PA'
p414
sg23
S'1057 A North Church Street'
p415
sg25
F40.974530180724344
sg26
S'Institutional'
p416
sba(igenerator
School
p417
(dp418
g3
S'www.csld.edu'
p419
sg5
S'Conway'
p420
sg7
S'csld.edu'
p421
sg9
g10
(S'\x07\xde\x0c\x0b\x0276\x0c\x18\xbd'
p422
tp423
Rp424
sg14
S'Conway School of Landscape Design'
p425
sg16
F-72.6752769
sg17
g18
sg19
S'413-369-4044'
p426
sg21
S'MA'
p427
sg23
S'332 South Deerfield Rd'
p428
sg25
F42.508269
sg26
S'Institutional'
p429
sba(igenerator
School
p430
(dp431
g3
S'www.academyofhair.com'
p432
sg5
S'Carthage'
p433
sg7
S'academyofhair.com'
p434
sg9
g10
(S'\x07\xde\x0c\x0b\x0279\x00\x8b\xb3'
p435
tp436
Rp437
sg14
S'Academy of Hair Design Seven'
p438
sg16
F-89.53726066784475
sg17
g51
sg19
S'601-267-8031'
p439
sg21
S'MS'
p440
sg23
S'215 HWY 35 N'
p441
sg25
F32.737918357747105
sg26
S'Institutional'
p442
sba(igenerator
School
p443
(dp444
g3
S'www.greatlakestds.com'
p445
sg5
S'Columbia Station'
p446
sg7
S'greatlakestds.com'
p447
sg9
g10
(S'\x07\xde\x0c\x0b\x027;\x00I\xbf'
p448
tp449
Rp450
sg14
S'Great Lakes Truck Driving School'
p451
sg16
F-81.96804069681991
sg17
g51
sg19
S'866-932-3436'
p452
sg21
S'OH'
p453
sg23
S'27740 Royalton Road'
p454
sg25
F41.31329751007314
sg26
S'Institutional'
p455
sba(igenerator
School
p456
(dp457
g3
S'www.nyip.com'
p458
sg5
S'New York'
p459
sg7
S'nyip.com'
p460
sg9
g10
(S'\x07\xde\x0c\x0b\x028\x01\x01\x9b\xd8'
p461
tp462
Rp463
sg14
S'New York Institute of Photography'
p464
sg16
F-73.98082645347722
sg17
g51
sg19
S'212-867-8260'
p465
sg21
S'NY'
p466
sg23
S'192 Lexington Avenue, Suite 701'
p467
sg25
F40.744949484332324
sg26
S'Institutional'
p468
sba(igenerator
School
p469
(dp470
g3
S'vstsuccess.com'
p471
sg5
S'Norfolk'
p472
sg7
S'vstsuccess.com'
p473
sg9
g10
(S'\x07\xde\x0c\x0b\x028\x03\x03\xe5\xaa'
p474
tp475
Rp476
sg14
S'Fortis College - Norfolk'
p477
sg16
F-76.19023004278142
sg17
g51
sg19
S'757-499-5447'
p478
sg21
S'VA'
p479
sg23
S'6300 Center Drive, Suite 100'
p480
sg25
F36.84655771376856
sg26
S'Institutional'
p481
sba(igenerator
School
p482
(dp483
g3
g71
sg5
S'Neosho'
p484
sg7
Nsg9
g10
(S'\x07\xde\x0c\x0b\x028\x04\x07c\xfd'
p485
tp486
Rp487
sg14
S'Essentials Academy of Cosmetology'
p488
sg16
F-94.3771539
sg17
g18
sg19
g71
sg21
S'MO'
p489
sg23
S'4302 Howard Bush Drive'
p490
sg25
F36.813722
sg26
S'Institutional'
p491
sba(igenerator
School
p492
(dp493
g3
S'trinitycollege.edu'
p494
sg5
S'Trinity'
p495
sg7
S'trinitycollege.edu'
p496
sg9
g10
(S'\x07\xde\x0c\x0b\x028\x05\twK'
p497
tp498
Rp499
sg14
S'Trinity College of Florida'
p500
sg16
F-82.6794171
sg17
g18
sg19
S'727-376-6911'
p501
sg21
S'FL'
p502
sg23
S'2430 Welbilt Blvd'
p503
sg25
F28.1963654
sg26
S'Institutional'
p504
sba(igenerator
School
p505
(dp506
g3
S'www.sunyorange.edu'
p507
sg5
S'Middletown'
p508
sg7
S'sunyorange.edu'
p509
sg9
g10
(S'\x07\xde\x0c\x0b\x028\x06\t\xb0I'
p510
tp511
Rp512
sg14
S'Orange County Community College'
p513
sg16
F-74.4253279
sg17
g18
sg19
S'845-344-6222'
p514
sg21
S'NY'
p515
sg23
S'115 South St'
p516
sg25
F41.438529
sg26
S'Institutional'
p517
sba(igenerator
School
p518
(dp519
g3
g71
sg5
S'West Park'
p520
sg7
Nsg9
g10
(S'\x07\xde\x0c\x0b\x028\t\x01g\xb3'
p521
tp522
Rp523
sg14
S'Hudson Valley School of Advanced Aesthetic Skin Care'
p524
sg16
F-73.9594671951541
sg17
g51
sg19
g71
sg21
S'NY'
p525
sg23
S'1723 Route 9W, P.O. Box 174'
p526
sg25
F41.785170212036746
sg26
S'Institutional'
p527
sba(igenerator
School
p528
(dp529
g3
g71
sg5
S'Corona'
p530
sg7
Nsg9
g10
(S'\x07\xde\x0c\x0b\x028\x0b\x01%\xa5'
p531
tp532
Rp533
sg14
S'Tri-County Allied Health School'
p534
sg16
F-117.55903233437402
sg17
g51
sg19
g71
sg21
S'CA'
p535
sg23
S'512 Queensland Circle'
p536
sg25
F33.884073430845206
sg26
S'Institutional'
p537
sba(igenerator
School
p538
(dp539
g3
g71
sg5
S'Carson'
p540
sg7
Nsg9
g10
(S'\x07\xde\x0c\x0b\x028\x0c\x02\x81\xf9'
p541
tp542
Rp543
sg14
S'Carson City Beauty Academy'
p544
sg16
F-119.7612529
sg17
g18
sg19
S'702-885-9977'
p545
sg21
S'NV'
p546
sg23
S'1851 South Roop Street'
p547
sg25
F39.158916
sg26
S'Institutional'
p548
sba(igenerator
School
p549
(dp550
g3
S'www.cf.edu'
p551
sg5
S'Ocala'
p552
sg7
S'cf.edu'
p553
sg9
g10
(S'\x07\xde\x0c\x0b\x028\r\x05\xffU'
p554
tp555
Rp556
sg14
S'College of Central Florida'
p557
sg16
F-82.1544139
sg17
g18
sg19
S'352-873-5800'
p558
sg21
S'FL'
p559
sg23
S'3001 SW College Road'
p560
sg25
F29.178954
sg26
S'Institutional'
p561
sba(igenerator
School
p562
(dp563
g3
S'www.sfcm.edu'
p564
sg5
S'San Francisco'
p565
sg7
S'sfcm.edu'
p566
sg9
g10
(S'\x07\xde\x0c\x0b\x028\x0f\x08N\x8b'
p567
tp568
Rp569
sg14
S'San Francisco Conservatory of Music'
p570
sg16
F-122.42031342402458
sg17
g51
sg19
S'415-564-8086'
p571
sg21
S'CA'
p572
sg23
S'50 Oak Street'
p573
sg25
F37.775327967612725
sg26
S'Institutional'
p574
sba(igenerator
School
p575
(dp576
g3
g71
sg5
S'New York'
p577
sg7
Nsg9
g10
(S'\x07\xde\x0c\x0b\x028\x15\x05\xcfg'
p578
tp579
Rp580
sg14
S'Star Career Academy - New York'
p581
sg16
F-74.00711668468642
sg17
g51
sg19
g71
sg21
S'NY'
p582
sg23
S'154 West 14th Street,  11th Floor'
p583
sg25
F40.714550467431195
sg26
S'Institutional'
p584
sba(igenerator
School
p585
(dp586
g3
S'www.sageschoolofmassage.com'
p587
sg5
S'Bend'
p588
sg7
S'sageschoolofmassage.com'
p589
sg9
g10
(S'\x07\xde\x0c\x0b\x028\x17\x08\x19\xf4'
p590
tp591
Rp592
sg14
S'Sage School of Massage'
p593
sg16
F-121.30092925448082
sg17
g51
sg19
S'541-383-2122'
p594
sg21
S'OR'
p595
sg23
S'369 NE Revere Avenue, Suite B'
p596
sg25
F44.06762208259414
sg26
S'Institutional'
p597
sba(igenerator
School
p598
(dp599
g3
S'www.heritage.edu'
p600
sg5
S'Toppenish'
p601
sg7
S'heritage.edu'
p602
sg9
g10
(S'\x07\xde\x0c\x0b\x028\x19\x08\xae\xa4'
p603
tp604
Rp605
sg14
S'Heritage University'
p606
sg16
F-120.39383918293123
sg17
g51
sg19
S'509-865-8500-2010'
p607
sg21
S'WA'
p608
sg23
S'3240 Fort Rd'
p609
sg25
F46.3752623044129
sg26
S'Institutional'
p610
sba(igenerator
School
p611
(dp612
g3
S'www.allenuniversity.edu'
p613
sg5
S'Columbia'
p614
sg7
S'allenuniversity.edu'
p615
sg9
g10
(S'\x07\xde\x0c\x0b\x028\x1a\x0c\xebH'
p616
tp617
Rp618
sg14
S'Allen University'
p619
sg16
F-81.024526
sg17
g18
sg19
S'803-254-4165'
p620
sg21
S'SC'
p621
sg23
S'1530 Harden Street'
p622
sg25
F34.0182822
sg26
S'Institutional'
p623
sba(igenerator
School
p624
(dp625
g3
S'www.pennfostercollege.edu'
p626
sg5
S'Scottsdale'
p627
sg7
S'pennfostercollege.edu'
p628
sg9
g10
(S'\x07\xde\x0c\x0b\x028\x1c\x0b\x08='
p629
tp630
Rp631
sg14
S'Penn Foster College'
p632
sg16
F-111.89787408202255
sg17
g51
sg19
S'480-947-6644'
p633
sg21
S'AZ'
p634
sg23
S'14300 N. Northsight Boulevard Suite 120'
p635
sg25
F33.61638108132291
sg26
S'Institutional'
p636
sba(igenerator
School
p637
(dp638
g3
S'www.pitzer.edu'
p639
sg5
S'Claremont'
p640
sg7
S'pitzer.edu'
p641
sg9
g10
(S'\x07\xde\x0c\x0b\x028\x1e\x0b:-'
p642
tp643
Rp644
sg14
S'Pitzer College'
p645
sg16
F-117.70707634999286
sg17
g51
sg19
S'909-621-8243'
p646
sg21
S'CA'
p647
sg23
S'1050 North Mills Avenue'
p648
sg25
F34.10421110995583
sg26
S'Institutional'
p649
sba(igenerator
School
p650
(dp651
g3
S'www.studymedical.com'
p652
sg5
S'Clearwater'
p653
sg7
S'studymedical.com'
p654
sg9
g10
(S'\x07\xde\x0c\x0b\x028\x1f\x0c\x97\xd5'
p655
tp656
Rp657
sg14
S'Ultimate Medical Academy - Clearwater'
p658
sg16
F-82.7876781
sg17
g18
sg19
S'727-298-8685'
p659
sg21
S'FL'
p660
sg23
S'1255 Cleveland Street'
p661
sg25
F27.9656334
sg26
S'Institutional'
p662
sba(igenerator
School
p663
(dp664
g3
S'WWW.WHITTIER.EDU'
p665
sg5
S'Whittier'
p666
sg7
S'whittier.edu'
p667
sg9
g10
(S'\x07\xde\x0c\x0b\x028!\x0e\xe4\x17'
p668
tp669
Rp670
sg14
S'Whittier College'
p671
sg16
F-118.03085947398483
sg17
g51
sg19
S'562-907-4200'
p672
sg21
S'CA'
p673
sg23
S'13406 E Philadelphia Street'
p674
sg25
F33.97903297519275
sg26
S'Institutional'
p675
sba(igenerator
School
p676
(dp677
g3
g71
sg5
S'Antioch'
p678
sg7
Nsg9
g10
(S'\x07\xde\x0c\x0b\x028$\x00\x04Z'
p679
tp680
Rp681
sg14
S'Contra Costa Medical Career College, Inc.'
p682
sg16
F-121.80007688683816
sg17
g51
sg19
S'925-757-2900'
p683
sg21
S'CA'
p684
sg23
S'4051 Lone Tree Way, Suite C'
p685
sg25
F37.97515127021603
sg26
S'Institutional'
p686
sba(igenerator
School
p687
(dp688
g3
S'www.armstrong.edu'
p689
sg5
S'Savannah'
p690
sg7
S'armstrong.edu'
p691
sg9
g10
(S'\x07\xde\x0c\x0b\x028%\x01\xd7\x80'
p692
tp693
Rp694
sg14
S'Armstrong State University'
p695
sg16
F-81.1624659
sg17
g18
sg19
S'912-927-5211'
p696
sg21
S'GA'
p697
sg23
S'11935 Abercorn St'
p698
sg25
F31.9802509
sg26
S'Institutional'
p699
sba(igenerator
School
p700
(dp701
g3
S'www.tnstate.edu'
p702
sg5
S'Nashville'
p703
sg7
S'tnstate.edu'
p704
sg9
g10
(S'\x07\xde\x0c\x0b\x028&\x08\xb1\x91'
p705
tp706
Rp707
sg14
S'Tennessee State University'
p708
sg16
F-86.8483489
sg17
g18
sg19
S'615-963-5111'
p709
sg21
S'TN'
p710
sg23
S'3500 John A. Merritt Blvd'
p711
sg25
F36.162115
sg26
S'Institutional'
p712
sba(igenerator
School
p713
(dp714
g3
S'www.sentara.edu'
p715
sg5
S'Chesapeake'
p716
sg7
S'sentara.edu'
p717
sg9
g10
(S'\x07\xde\x0c\x0b\x028)\x00\xe9V'
p718
tp719
Rp720
sg14
S'Sentara College of Health Sciences'
p721
sg16
F-76.24389871994919
sg17
g51
sg19
S'757-388-2900'
p722
sg21
S'VA'
p723
sg23
S'1441 Crossways Blvd, Suite 105'
p724
sg25
F36.77738508425534
sg26
S'Institutional'
p725
sba(igenerator
School
p726
(dp727
g3
g71
sg5
S'Little Rock'
p728
sg7
Nsg9
g10
(S'\x07\xde\x0c\x0b\x0280\x08\xab+'
p729
tp730
Rp731
sg14
S'College of Barber & Hair Design'
p732
sg16
F-92.28251391288603
sg17
g51
sg19
S'501-376-9696'
p733
sg21
S'AR'
p734
sg23
S'2500 South State Street'
p735
sg25
F34.724351899022
sg26
S'Institutional'
p736
sba(igenerator
School
p737
(dp738
g3
g71
sg5
S'Louisville'
p739
sg7
Nsg9
g10
(S'\x07\xde\x0c\x0b\x0282\rh\xce'
p740
tp741
Rp742
sg14
S'Montessori Educators International, Inc (IND)'
p743
sg16
F-83.96005018946391
sg17
g51
sg19
g71
sg21
S'TN'
p744
sg23
S'913 Cumberland Dr.'
p745
sg25
F35.851972578772575
sg26
S'Institutional'
p746
sba(igenerator
School
p747
(dp748
g3
g71
sg5
S'Little Rock'
p749
sg7
Nsg9
g10
(S'\x07\xde\x0c\x0b\x0284\x0ej\x9e'
p750
tp751
Rp752
sg14
S'Arkansas Beauty School - Little Rock'
p753
sg16
F-92.33525961224058
sg17
g51
sg19
S'501-562-5673'
p754
sg21
S'AR'
p755
sg23
S'5108 Baseline Rd'
p756
sg25
F34.66876812904701
sg26
S'Institutional'
p757
sba(igenerator
School
p758
(dp759
g3
g71
sg5
S'El Paso'
p760
sg7
Nsg9
g10
(S'\x07\xde\x0c\x0b\x0287\x02\xa1\xc8'
p761
tp762
Rp763
sg14
S'International Business College - El Paso'
p764
sg16
F-106.30832540339395
sg17
g51
sg19
g71
sg21
S'TX'
p765
sg23
S'1155 N Zaragosa Rd  Suite 100'
p766
sg25
F31.715782657344846
sg26
S'Institutional'
p767
sba(igenerator
School
p768
(dp769
g3
S'www.jbu.edu'
p770
sg5
S'Siloam Springs'
p771
sg7
S'jbu.edu'
p772
sg9
g10
(S'\x07\xde\x0c\x0b\x0288\x08\xa0\x13'
p773
tp774
Rp775
sg14
S'John Brown University'
p776
sg16
F-94.5589325597077
sg17
g18
sg19
S'479-524-9500'
p777
sg21
S'AR'
p778
sg23
S'2000 W University St'
p779
sg25
F36.1881177
sg26
S'Institutional'
p780
sba(igenerator
School
p781
(dp782
g3
S'www.harvard.edu/'
p783
sg5
S'Cambridge'
p784
sg7
S'harvard.edu'
p785
sg9
g10
(S'\x07\xde\x0c\x0b\x0289\t\x9e\xba'
p786
tp787
Rp788
sg14
S'Harvard University'
p789
sg16
F-71.11828845
sg17
g18
sg19
S'617-495-1000'
p790
sg21
S'MA'
p791
sg23
S'Massachusetts Hall'
p792
sg25
F42.37444275
sg26
S'Institutional'
p793
sba(igenerator
School
p794
(dp795
g3
S'www.asher.edu'
p796
sg5
S'Sacramento'
p797
sg7
S'asher.edu'
p798
sg9
g10
(S'\x07\xde\x0c\x0b\x028;\n\x10\x8f'
p799
tp800
Rp801
sg14
S'Asher College'
p802
sg16
F-121.41551446282153
sg17
g51
sg19
S'916-649-9600'
p803
sg21
S'CA'
p804
sg23
S'1215 Howe Avenue, Suite 101'
p805
sg25
F38.587370922431205
sg26
S'Institutional'
p806
sba(igenerator
School
p807
(dp808
g3
g71
sg5
S'Springfield'
p809
sg7
Nsg9
g10
(S'\x07\xde\x0c\x0b\x029\x01\nK\\'
p810
tp811
Rp812
sg14
S'Cox Health Systems - School of Radiologic Technology'
p813
sg16
F-93.28916459077249
sg17
g51
sg19
g71
sg21
S'MO'
p814
sg23
S'1423 N. Jefferson Ave.'
p815
sg25
F37.225461390331986
sg26
S'Institutional'
p816
sba(igenerator
School
p817
(dp818
g3
S'www.deltacollege.com'
p819
sg5
S'Covington'
p820
sg7
S'deltacollege.com'
p821
sg9
g10
(S'\x07\xde\x0c\x0b\x029\x03\nQ+'
p822
tp823
Rp824
sg14
S'Delta College'
p825
sg16
F-90.084934312168
sg17
g51
sg19
S'985-892-6651'
p826
sg21
S'LA'
p827
sg23
S'19231 North 6th Street'
p828
sg25
F30.455503483500024
sg26
S'Institutional'
p829
sba(igenerator
School
p830
(dp831
g3
S'www.mecc.edu'
p832
sg5
S'Big Stone Gap'
p833
sg7
S'mecc.edu'
p834
sg9
g10
(S'\x07\xde\x0c\x0b\x029\x05\x0e\x1c\xdd'
p835
tp836
Rp837
sg14
S'Mountain Empire Community College'
p838
sg16
F-82.75710074740078
sg17
g51
sg19
S'276-523-2400'
p839
sg21
S'VA'
p840
sg23
S'3441 Mountain Empire Road'
p841
sg25
F36.85588954157015
sg26
S'Institutional'
p842
sba(igenerator
School
p843
(dp844
g3
S'www.northeastcollege.com'
p845
sg5
S'Norfolk'
p846
sg7
S'northeastcollege.com'
p847
sg9
g10
(S'\x07\xde\x0c\x0b\x029\x08\x00P>'
p848
tp849
Rp850
sg14
S'Northeast Community College'
p851
sg16
F-97.39413350055986
sg17
g51
sg19
S'402-371-2020'
p852
sg21
S'NE'
p853
sg23
S'801 E Benjamin'
p854
sg25
F42.04739372933824
sg26
S'Institutional'
p855
sba(igenerator
School
p856
(dp857
g3
S'www.techskills.com'
p858
sg5
S'Brookfield'
p859
sg7
S'techskills.com'
p860
sg9
g10
(S'\x07\xde\x0c\x0b\x029\n\x03s\xbb'
p861
tp862
Rp863
sg14
S'TechSkills - Brookfield'
p864
sg16
F-88.1147428517005
sg17
g51
sg19
S'262-821-5200'
p865
sg21
S'WI'
p866
sg23
S'400 N. Executive Drive, Suite 402'
p867
sg25
F43.0342488370153
sg26
S'Institutional'
p868
sba(igenerator
School
p869
(dp870
g3
S'www.clarion.edu'
p871
sg5
S'Clarion'
p872
sg7
S'clarion.edu'
p873
sg9
g10
(S'\x07\xde\x0c\x0b\x029\x0b\x06\xef\x1d'
p874
tp875
Rp876
sg14
S'Clarion University of Pennsylvania'
p877
sg16
F-79.3880539
sg17
g18
sg19
S'814-393-2000'
p878
sg21
S'PA'
p879
sg23
S'840 Wood St'
p880
sg25
F41.214284
sg26
S'Institutional'
p881
sba(igenerator
School
p882
(dp883
g3
S'wci.edu'
p884
sg5
S'Portland'
p885
sg7
S'wci.edu'
p886
sg9
g10
(S'\x07\xde\x0c\x0b\x029\r\t;X'
p887
tp888
Rp889
sg14
S'Le Cordon Bleu College of Culinary Art - Portland'
p890
sg16
F-122.68174197031499
sg17
g51
sg19
S'503-223-2245'
p891
sg21
S'OR'
p892
sg23
S'921 SW Morrison Street, Suite 400'
p893
sg25
F45.519936188205634
sg26
S'Institutional'
p894
sba(igenerator
School
p895
(dp896
g3
S'www.midtncosmo.com'
p897
sg5
S'Cookeville'
p898
sg7
S'midtncosmo.com'
p899
sg9
g10
(S'\x07\xde\x0c\x0b\x029\x0f\x0b\x87>'
p900
tp901
Rp902
sg14
S'Genesis Career College - Cookeville'
p903
sg16
F-85.48538094897083
sg17
g51
sg19
S'931-526-4515'
p904
sg21
S'TN'
p905
sg23
S'880-A East 10th Street'
p906
sg25
F36.175739134554476
sg26
S'Institutional'
p907
sba(igenerator
School
p908
(dp909
g3
S'www.thomasaquinas.edu'
p910
sg5
S'Santa Paula'
p911
sg7
S'thomasaquinas.edu'
p912
sg9
g10
(S'\x07\xde\x0c\x0b\x029\x12\x03B\x95'
p913
tp914
Rp915
sg14
S'Thomas Aquinas College'
p916
sg16
F-119.08882932681126
sg17
g51
sg19
S'805-525-4417'
p917
sg21
S'CA'
p918
sg23
S'10000 N Ojai Rd'
p919
sg25
F34.426106797092075
sg26
S'Institutional'
p920
sba(igenerator
School
p921
(dp922
g3
g71
sg5
S'Stephenville'
p923
sg7
Nsg9
g10
(S'\x07\xde\x0c\x0b\x029\x14\x05\x8c8'
p924
tp925
Rp926
sg14
S'Stephenville Beauty College'
p927
sg16
F-98.21129653050974
sg17
g51
sg19
S'254-968-2111'
p928
sg21
S'TX'
p929
sg23
S'951 S Lillian St'
p930
sg25
F32.205859083630855
sg26
S'Institutional'
p931
sba(igenerator
School
p932
(dp933
g3
S'www.utica.edu/'
p934
sg5
S'Utica'
p935
sg7
S'utica.edu'
p936
sg9
g10
(S'\x07\xde\x0c\x0b\x029\x15\x04Z\x88'
p937
tp938
Rp939
sg14
S'Utica College'
p940
sg16
F-75.2700329
sg17
g18
sg19
S'315-792-3111'
p941
sg21
S'NY'
p942
sg23
S'1600 Burrstone Rd'
p943
sg25
F43.092615
sg26
S'Institutional'
p944
sba(igenerator
School
p945
(dp946
g3
S'www.uark.edu'
p947
sg5
S'Fayetteville'
p948
sg7
S'uark.edu'
p949
sg9
g10
(S'\x07\xde\x0c\x0b\x029\x17\x06\xa55'
p950
tp951
Rp952
sg14
S'University of Arkansas, Fayetteville'
p953
sg16
F-94.15790709633467
sg17
g51
sg19
S'479-575-4148'
p954
sg21
S'AR'
p955
sg23
S'Administration Bldg. 425'
p956
sg25
F36.063203621451066
sg26
S'Institutional'
p957
sba(igenerator
School
p958
(dp959
g3
g71
sg5
S'Fountain Valley'
p960
sg7
Nsg9
g10
(S'\x07\xde\x0c\x0b\x029\x19\x08\xefd'
p961
tp962
Rp963
sg14
S'Coastline Beauty College'
p964
sg16
F-117.91999267901821
sg17
g51
sg19
g71
sg21
S'CA'
p965
sg23
S'16151 Harbor Boulevard'
p966
sg25
F33.72875045097362
sg26
S'Institutional'
p967
sba(igenerator
School
p968
(dp969
g3
S'www.emergencytraining.com'
p970
sg5
S'Santa Cruz'
p971
sg7
S'emergencytraining.com'
p972
sg9
g10
(S'\x07\xde\x0c\x0b\x029\x1b\x0b?,'
p973
tp974
Rp975
sg14
S'Emergency Training Services, Inc.'
p976
sg16
F-121.98559206382203
sg17
g51
sg19
S'831-476-8813'
p977
sg21
S'CA'
p978
sg23
S'3050 Paul Sweet Road'
p979
sg25
F36.98813397070728
sg26
S'Institutional'
p980
sba(igenerator
School
p981
(dp982
g3
S'www.tbc.edu'
p983
sg5
S'Jacksonville'
p984
sg7
S'tbc.edu'
p985
sg9
g10
(S'\x07\xde\x0c\x0b\x029\x1c\x0c\xf2\xfe'
p986
tp987
Rp988
sg14
S'Trinity Baptist College'
p989
sg16
F-81.7940869
sg17
g18
sg19
S'904-596-2400'
p990
sg21
S'FL'
p991
sg23
S'800 Hammond Blvd'
p992
sg25
F30.308966
sg26
S'Institutional'
p993
sba(igenerator
School
p994
(dp995
g3
S'www.sj-alaska.edu'
p996
sg5
S'Sitka'
p997
sg7
S'sj-alaska.edu'
p998
sg9
g10
(S'\x07\xde\x0c\x0b\x029\x1d\x08\xcc\x9b'
p999
tp1000
Rp1001
sg14
S'Sheldon Jackson College'
p1002
sg16
F-135.3273329
sg17
g18
sg19
S'907-747-5220'
p1003
sg21
S'AK'
p1004
sg23
S'801 Lincoln Street'
p1005
sg25
F57.0511543
sg26
S'Institutional'
p1006
sba(igenerator
School
p1007
(dp1008
g3
S'saacollege.com'
p1009
sg5
S'Kettering'
p1010
sg7
S'saacollege.com'
p1011
sg9
g10
(S'\x07\xde\x0c\x0b\x029\x1e\x08B\x94'
p1012
tp1013
Rp1014
sg14
S'School of Advertising Art Inc'
p1015
sg16
F-84.1475793
sg17
g18
sg19
S'937-294-0592-100'
p1016
sg21
S'OH'
p1017
sg23
S'1725 E David Rd'
p1018
sg25
F39.6813076
sg26
S'Institutional'
p1019
sba(igenerator
School
p1020
(dp1021
g3
S'www.owensboro.kctcs.edu'
p1022
sg5
S'Owensboro'
p1023
sg7
S'kctcs.edu'
p1024
sg9
g10
(S'\x07\xde\x0c\x0b\x029\x1f\x05H\xd3'
p1025
tp1026
Rp1027
sg14
S'Owensboro Community and Technical College'
p1028
sg16
F-87.0879377
sg17
g18
sg19
S'270-686-4400'
p1029
sg21
S'KY'
p1030
sg23
S'4800 New Hartford Rd'
p1031
sg25
F37.7315905
sg26
S'Institutional'
p1032
sba(igenerator
School
p1033
(dp1034
g3
S'www.ohiostatebeauty.com'
p1035
sg5
S'Lima'
p1036
sg7
S'ohiostatebeauty.com'
p1037
sg9
g10
(S'\x07\xde\x0c\x0b\x029!\x01O\xc3'
p1038
tp1039
Rp1040
sg14
S'Ohio State Beauty Academy'
p1041
sg16
F-84.1651044994723
sg17
g51
sg19
S'419-229-7896'
p1042
sg21
S'OH'
p1043
sg23
S'1760 North Eastown Road'
p1044
sg25
F40.76137180456624
sg26
S'Institutional'
p1045
sba(igenerator
School
p1046
(dp1047
g3
S'www.waynecc.edu'
p1048
sg5
S'Goldsboro'
p1049
sg7
S'waynecc.edu'
p1050
sg9
g10
(S'\x07\xde\x0c\x0b\x029"\x02\xdd\xe2'
p1051
tp1052
Rp1053
sg14
S'Wayne Community College'
p1054
sg16
F-77.9678447
sg17
g18
sg19
S'919-735-5151'
p1055
sg21
S'NC'
p1056
sg23
S'3000 Wayne Memorial Dr'
p1057
sg25
F35.3965066
sg26
S'Institutional'
p1058
sba(igenerator
School
p1059
(dp1060
g3
g71
sg5
S'Seattle'
p1061
sg7
Nsg9
g10
(S'\x07\xde\x0c\x0b\x029#\x07\xa9\x9e'
p1062
tp1063
Rp1064
sg14
S'Academy of Interactive Entertainment'
p1065
sg16
F-122.3509484
sg17
g18
sg19
g71
sg21
S'WA'
p1066
sg23
S'305 Harrison Street'
p1067
sg25
F47.6212523
sg26
S'Institutional'
p1068
sba(igenerator
School
p1069
(dp1070
g3
g71
sg5
S'Sarasota'
p1071
sg7
Nsg9
g10
(S'\x07\xde\x0c\x0b\x029%\t\xf0\n'
p1072
tp1073
Rp1074
sg14
S'Meridian College'
p1075
sg16
F-82.42476833528963
sg17
g51
sg19
S'941-377-4880'
p1076
sg21
S'FL'
p1077
sg23
S'7020 Professional Way East, Suite 200'
p1078
sg25
F27.381218251921837
sg26
S'Institutional'
p1079
sba(igenerator
School
p1080
(dp1081
g3
S'donnelly.edu'
p1082
sg5
S'Kansas City'
p1083
sg7
S'donnelly.edu'
p1084
sg9
g10
(S"\x07\xde\x0c\x0b\x029'\n\xf4g"
p1085
tp1086
Rp1087
sg14
S'Donnelly College'
p1088
sg16
F-94.64937565875891
sg17
g51
sg19
S'913-621-6070-700'
p1089
sg21
S'KS'
p1090
sg23
S'608 N 18th St'
p1091
sg25
F39.11229059843345
sg26
S'Institutional'
p1092
sba(igenerator
School
p1093
(dp1094
g3
S'www.ccbcmd.edu'
p1095
sg5
S'Baltimore'
p1096
sg7
S'ccbcmd.edu'
p1097
sg9
g10
(S'\x07\xde\x0c\x0b\x029)\x0cl\x07'
p1098
tp1099
Rp1100
sg14
S'The Community College of Baltimore County'
p1101
sg16
F-76.60925984306652
sg17
g51
sg19
S'410-869-1211'
p1102
sg21
S'MD'
p1103
sg23
S'800 South Rolling Road'
p1104
sg25
F39.29058294954456
sg26
S'Institutional'
p1105
sba(igenerator
School
p1106
(dp1107
g3
S'www.escuelahotelera.com'
p1108
sg5
S'Hato Rey'
p1109
sg7
S'escuelahotelera.com'
p1110
sg9
g10
(S'\x07\xde\x0c\x0b\x029,\x00GM'
p1111
tp1112
Rp1113
sg14
S'Escuela Hotelera de San Juan'
p1114
sg16
F-66.04743289799967
sg17
g51
sg19
S'787-759-7599'
p1115
sg21
S'PR'
p1116
sg23
S'229 Guayama St'
p1117
sg25
F18.416946590000464
sg26
S'Institutional'
p1118
sba(igenerator
School
p1119
(dp1120
g3
S'www.frc.edu'
p1121
sg5
S'Quincy'
p1122
sg7
S'frc.edu'
p1123
sg9
g10
(S'\x07\xde\x0c\x0b\x023,\n\xc5\t'
p1124
tp1125
Rp1126
sg14
S'Feather River College'
p1127
sg16
F-120.96932444156903
sg17
S'geopy.geocoders.arcgis'
p1128
sg19
S'530-283-0202'
p1129
sg21
S'CA'
p1130
sg23
S'570 Golden Eagle Ave'
p1131
sg25
F39.95053528937319
sg26
S'Institutional'
p1132
sba(igenerator
School
p1133
(dp1134
g3
S'WWW.METROPOLITANCOLLEGE.EDU'
p1135
sg5
S'Albuquerque'
p1136
sg7
S'metropolitancollege.edu'
p1137
sg9
g10
(S'\x07\xde\x0c\x0b\x023/\x00\xbd\xf2'
p1138
tp1139
Rp1140
sg14
S'Metropolitan College'
p1141
sg16
F-106.55611963391323
sg17
g1128
sg19
S'505-888-3400'
p1142
sg21
S'NM'
p1143
sg23
S'8100 Mountain Rd. NE Suite 200'
p1144
sg25
F35.09088676421385
sg26
S'Institutional'
p1145
sba(igenerator
School
p1146
(dp1147
g3
g71
sg5
S'New York'
p1148
sg7
Nsg9
g10
(S'\x07\xde\x0c\x0b\x0231\x03\x92\x8b'
p1149
tp1150
Rp1151
sg14
S'Carsten Institute of Cosmetology- New York'
p1152
sg16
F-74.00711668468642
sg17
g1128
sg19
g71
sg21
S'NY'
p1153
sg23
S'22 East 17th Street, 2nd Floor'
p1154
sg25
F40.714550467431195
sg26
S'Institutional'
p1155
sba(igenerator
School
p1156
(dp1157
g3
g71
sg5
S'Canoga Park'
p1158
sg7
Nsg9
g10
(S'\x07\xde\x0c\x0b\x0233\x05c\xd7'
p1159
tp1160
Rp1161
sg14
S'California Career College'
p1162
sg16
F-118.60157313399225
sg17
g1128
sg19
S'818-710-1310'
p1163
sg21
S'CA'
p1164
sg23
S'7003 Owensmouth Avenue'
p1165
sg25
F34.197529805257375
sg26
S'Institutional'
p1166
sba(igenerator
School
p1167
(dp1168
g3
g71
sg5
S'Lewes'
p1169
sg7
Nsg9
g10
(S'\x07\xde\x0c\x0b\x0234\x00\xdd\x04'
p1170
tp1171
Rp1172
sg14
S'Irish American University'
p1173
sg16
F-75.132935
sg17
S'geopy.geocoders.osm'
p1174
sg19
g71
sg21
S'DE'
p1175
sg23
S'404 East Savannah Road'
p1176
sg25
F38.7801846
sg26
S'Institutional'
p1177
sba(igenerator
School
p1178
(dp1179
g3
S'www.triton.edu'
p1180
sg5
S'River Grove'
p1181
sg7
S'triton.edu'
p1182
sg9
g10
(S'\x07\xde\x0c\x0b\x0235\x07\xb9~'
p1183
tp1184
Rp1185
sg14
S'Triton College'
p1186
sg16
F-87.84025115626508
sg17
g1128
sg19
S'708-456-0300'
p1187
sg21
S'IL'
p1188
sg23
S'2000 5th Ave'
p1189
sg25
F41.916092308614225
sg26
S'Institutional'
p1190
sba(igenerator
School
p1191
(dp1192
g3
g71
sg5
S'Horn Lake'
p1193
sg7
Nsg9
g10
(S'\x07\xde\x0c\x0b\x0237\x04m\x9c'
p1194
tp1195
Rp1196
sg14
S'Delta Technical College'
p1197
sg16
F-90.04833645816024
sg17
g1128
sg19
g71
sg21
S'MS'
p1198
sg23
S'6550 D Interstate Boulevard'
p1199
sg25
F34.962650679086664
sg26
S'Institutional'
p1200
sba(igenerator
School
p1201
(dp1202
g3
S'www.aenet.esuhsd.org'
p1203
sg5
S'San Jose'
p1204
sg7
S'esuhsd.org'
p1205
sg9
g10
(S'\x07\xde\x0c\x0b\x0238\n4\xbe'
p1206
tp1207
Rp1208
sg14
S'East Side Union High School District Adult School'
p1209
sg16
F-121.8587554
sg17
g1174
sg19
S'408-928-9320'
p1210
sg21
S'CA'
p1211
sg23
S'625 Educational Park Drive'
p1212
sg25
F37.3668179
sg26
S'Institutional'
p1213
sba(igenerator
School
p1214
(dp1215
g3
S'www.miles.edu'
p1216
sg5
S'Fairfield'
p1217
sg7
S'miles.edu'
p1218
sg9
g10
(S'\x07\xde\x0c\x0b\x0239\x08\x18\x96'
p1219
tp1220
Rp1221
sg14
S'Miles College'
p1222
sg16
F-86.9079423
sg17
g1174
sg19
S'205-929-1000'
p1223
sg21
S'AL'
p1224
sg23
S'5500 Myron Massey Blvd'
p1225
sg25
F33.4837219
sg26
S'Institutional'
p1226
sba(igenerator
School
p1227
(dp1228
g3
S'www.sau.edu'
p1229
sg5
S'Davenport'
p1230
sg7
S'sau.edu'
p1231
sg9
g10
(S'\x07\xde\x0c\x0b\x023:\n\xdd\xbe'
p1232
tp1233
Rp1234
sg14
S'Saint Ambrose University'
p1235
sg16
F-90.6063589
sg17
g1174
sg19
S'563-333-6000'
p1236
sg21
S'IA'
p1237
sg23
S'518 W. Locust St.'
p1238
sg25
F41.538261
sg26
S'Institutional'
p1239
sba(igenerator
School
p1240
(dp1241
g3
S'www.queencitycollege.com'
p1242
sg5
S'Clarksville'
p1243
sg7
S'queencitycollege.com'
p1244
sg9
g10
(S'\x07\xde\x0c\x0b\x023;\t\x15u'
p1245
tp1246
Rp1247
sg14
S'Queen City College'
p1248
sg16
F-87.4087911985573
sg17
g1174
sg19
S'931-645-2361'
p1249
sg21
S'TN'
p1250
sg23
S'1594 Fort Campbell Blvd'
p1251
sg25
F36.5740467
sg26
S'Institutional'
p1252
sba(igenerator
School
p1253
(dp1254
g3
S'www.stpaulsschoolofnursing.com'
p1255
sg5
S'Rego Park'
p1256
sg7
S'stpaulsschoolofnursing.com'
p1257
sg9
g10
(S'\x07\xde\x0c\x0b\x024\x00\x08\xb7\x01'
p1258
tp1259
Rp1260
sg14
S"St. Paul's School of Nursing - Flushing"
p1261
sg16
F-73.8583487
sg17
g1174
sg19
S'718-357-0500'
p1262
sg21
S'NY'
p1263
sg23
S'97-77 Queens Boulevard'
p1264
sg25
F40.7289837
sg26
S'Institutional'
p1265
sba(igenerator
School
p1266
(dp1267
g3
S'www.cappscollege.edu'
p1268
sg5
S'Foley'
p1269
sg7
S'cappscollege.edu'
p1270
sg9
g10
(S'\x07\xde\x0c\x0b\x024\x01\x08Y\x0e'
p1271
tp1272
Rp1273
sg14
S'Fortis College - Foley'
p1274
sg16
F-87.6762679
sg17
g1174
sg19
S'251-970-1460'
p1275
sg21
S'AL'
p1276
sg23
S'200 E. Laurel Avenue'
p1277
sg25
F30.406364
sg26
S'Institutional'
p1278
sba(igenerator
School
p1279
(dp1280
g3
S'www.paceinstitute.com'
p1281
sg5
S'Reading'
p1282
sg7
S'paceinstitute.com'
p1283
sg9
g10
(S'\x07\xde\x0c\x0b\x024\x03\t?\xdb'
p1284
tp1285
Rp1286
sg14
S'Pace Institute'
p1287
sg16
F-75.9250611900211
sg17
g1128
sg19
S'610-375-1212-216'
p1288
sg21
S'PA'
p1289
sg23
S'606 Court St'
p1290
sg25
F40.33617290145935
sg26
S'Institutional'
p1291
sba(igenerator
School
p1292
(dp1293
g3
S'www.icavts.tec.ok.us'
p1294
sg5
S'Sallisaw'
p1295
sg7
S'tec.ok.us'
p1296
sg9
g10
(S'\x07\xde\x0c\x0b\x024\x05\n\x05\xe8'
p1297
tp1298
Rp1299
sg14
S'Indian Capital Technology Center - Sallisaw'
p1300
sg16
F-94.78794911535863
sg17
g1128
sg19
S'918-775-9119'
p1301
sg21
S'OK'
p1302
sg23
S'Hc 61 Box 12'
p1303
sg25
F35.46064074907241
sg26
S'Institutional'
p1304
sba(igenerator
School
p1305
(dp1306
g3
S'www.vassar.edu'
p1307
sg5
S'Poughkeepsie'
p1308
sg7
S'vassar.edu'
p1309
sg9
g10
(S'\x07\xde\x0c\x0b\x024\x07\x00Y\xeb'
p1310
tp1311
Rp1312
sg14
S'Vassar College'
p1313
sg16
F-73.8976587
sg17
g1174
sg19
S'845-437-7000'
p1314
sg21
S'NY'
p1315
sg23
S'124 Raymond Ave'
p1316
sg25
F41.6844915
sg26
S'Institutional'
p1317
sba(igenerator
School
p1318
(dp1319
g3
g71
sg5
S'Albany'
p1320
sg7
Nsg9
g10
(S'\x07\xde\x0c\x0b\x024\x08\x03\xbe5'
p1321
tp1322
Rp1323
sg14
S"Austin's School of Spa Technology"
p1324
sg16
F-73.7885886734204
sg17
g1174
sg19
S'518-438-7879'
p1325
sg21
S'NY'
p1326
sg23
S'855 Central Ave'
p1327
sg25
F42.6807893
sg26
S'Institutional'
p1328
sba(igenerator
School
p1329
(dp1330
g3
S'www.cga.edu'
p1331
sg5
S'New London'
p1332
sg7
S'cga.edu'
p1333
sg9
g10
(S'\x07\xde\x0c\x0b\x024\n\x03\xca\x85'
p1334
tp1335
Rp1336
sg14
S'United States Coast Guard Academy'
p1337
sg16
F-72.10348737364257
sg17
g1128
sg19
S'860-444-8444'
p1338
sg21
S'CT'
p1339
sg23
S'15 Mohegan Avenue'
p1340
sg25
F41.370610061206435
sg26
S'Institutional'
p1341
sba(igenerator
School
p1342
(dp1343
g3
S'www.tamuk.edu'
p1344
sg5
S'Kingsville'
p1345
sg7
S'tamuk.edu'
p1346
sg9
g10
(S'\x07\xde\x0c\x0b\x024\x0b\x06\x81\xea'
p1347
tp1348
Rp1349
sg14
S'Texas A&M University - Kingsville'
p1350
sg16
F-97.882257
sg17
g1174
sg19
S'361-593-2111'
p1351
sg21
S'TX'
p1352
sg23
S'955 University Blvd'
p1353
sg25
F27.51899
sg26
S'Institutional'
p1354
sba(igenerator
School
p1355
(dp1356
g3
g71
sg5
S'Minot'
p1357
sg7
Nsg9
g10
(S'\x07\xde\x0c\x0b\x024\x0c\x06\xefy'
p1358
tp1359
Rp1360
sg14
S'Headquarters Academy of Hair Design Inc'
p1361
sg16
F-101.2930239
sg17
g1174
sg19
S'701-852-8329'
p1362
sg21
S'ND'
p1363
sg23
S'108 S Main St'
p1364
sg25
F48.232639
sg26
S'Institutional'
p1365
sba(igenerator
School
p1366
(dp1367
g3
S'www.dmartpr.com'
p1368
sg5
S'Vega Alta'
p1369
sg7
S'dmartpr.com'
p1370
sg9
g10
(S'\x07\xde\x0c\x0b\x024\r\r\x95\xc5'
p1371
tp1372
Rp1373
sg14
S"D'Mart Institute - Vega Alta"
p1374
sg16
F-66.33177998699966
sg17
g1128
sg19
S'787-883-8180'
p1375
sg21
S'PR'
p1376
sg23
S'The Gallery at Gran Cabibe Carr. #2 Km 29.7'
p1377
sg25
F18.412209980000455
sg26
S'Institutional'
p1378
sba(igenerator
School
p1379
(dp1380
g3
S'www.lonmorris.edu'
p1381
sg5
S'Jacksonville'
p1382
sg7
S'lonmorris.edu'
p1383
sg9
g10
(S'\x07\xde\x0c\x0b\x024\x0f\x02\xa7\xda'
p1384
tp1385
Rp1386
sg14
S'Lon Morris College'
p1387
sg16
F-95.2765373
sg17
g1174
sg19
S'903-589-4000-4000'
p1388
sg21
S'TX'
p1389
sg23
S'800 College Ave'
p1390
sg25
F31.9512755
sg26
S'Institutional'
p1391
sba(igenerator
School
p1392
(dp1393
g3
S'www.swtc.edu'
p1394
sg5
S'Fennimore'
p1395
sg7
S'swtc.edu'
p1396
sg9
g10
(S'\x07\xde\x0c\x0b\x024\x11\x02l\xfc'
p1397
tp1398
Rp1399
sg14
S'Southwest Wisconsin Technical College'
p1400
sg16
F-90.6357544828823
sg17
g1128
sg19
S'608-822-3262-2354'
p1401
sg21
S'WI'
p1402
sg23
S'1800 Bronson Blvd'
p1403
sg25
F42.97873726911075
sg26
S'Institutional'
p1404
sba(igenerator
School
p1405
(dp1406
g3
S'www.shimer.edu'
p1407
sg5
S'Chicago'
p1408
sg7
S'shimer.edu'
p1409
sg9
g10
(S'\x07\xde\x0c\x0b\x024\x12\x01)c'
p1410
tp1411
Rp1412
sg14
S'Shimer College'
p1413
sg16
F-87.6272489240891
sg17
g1174
sg19
S'312-235-3500'
p1414
sg21
S'IL'
p1415
sg23
S'3424 South State Street'
p1416
sg25
F41.8325384
sg26
S'Institutional'
p1417
sba(igenerator
School
p1418
(dp1419
g3
S'www.sotc.org'
p1420
sg5
S'Ardmore'
p1421
sg7
S'sotc.org'
p1422
sg9
g10
(S'\x07\xde\x0c\x0b\x024\x12\x0c\xd3w'
p1423
tp1424
Rp1425
sg14
S'Southern Oklahoma Technology Center'
p1426
sg16
F-97.1020359
sg17
g1174
sg19
S'580-223-2070-235'
p1427
sg21
S'OK'
p1428
sg23
S'2610 Sam Noble Pky'
p1429
sg25
F34.187373
sg26
S'Institutional'
p1430
sba(igenerator
School
p1431
(dp1432
g3
S'www.lrsc.nodak.edu'
p1433
sg5
S'Devils Lake'
p1434
sg7
S'nodak.edu'
p1435
sg9
g10
(S'\x07\xde\x0c\x0b\x024\x13\n8\xbb'
p1436
tp1437
Rp1438
sg14
S'Lake Region State College'
p1439
sg16
F-98.8653199
sg17
g1174
sg19
S'701-662-1600'
p1440
sg21
S'ND'
p1441
sg23
S'1801 College Dr N'
p1442
sg25
F48.122315
sg26
S'Institutional'
p1443
sba(igenerator
School
p1444
(dp1445
g3
g71
sg5
S'Waukesha'
p1446
sg7
Nsg9
g10
(S'\x07\xde\x0c\x0b\x024\x14\x08%\x8a'
p1447
tp1448
Rp1449
sg14
S'The Academy Waukesha'
p1450
sg16
F-88.2688449
sg17
g1174
sg19
g71
sg21
S'WI'
p1451
sg23
S'2000 Silvernail Road'
p1452
sg25
F43.04558
sg26
S'Institutional'
p1453
sba(igenerator
School
p1454
(dp1455
g3
S'www.gccnj.edu'
p1456
sg5
S'Sewell'
p1457
sg7
S'gccnj.edu'
p1458
sg9
g10
(S'\x07\xde\x0c\x0b\x024\x16\np\xe0'
p1459
tp1460
Rp1461
sg14
S'Gloucester County College'
p1462
sg16
F-75.12886787165417
sg17
g1128
sg19
S'856-468-5000'
p1463
sg21
S'NJ'
p1464
sg23
S'1400 Tanyard Road'
p1465
sg25
F39.78010935226587
sg26
S'Institutional'
p1466
sba(igenerator
School
p1467
(dp1468
g3
S'www.sandiegojobcorps.org'
p1469
sg5
S'Imperial Beach'
p1470
sg7
S'sandiegojobcorps.org'
p1471
sg9
g10
(S'\x07\xde\x0c\x0b\x024\x17\x0e\x7f='
p1472
tp1473
Rp1474
sg14
S'San Diego Job  Corps Center'
p1475
sg16
F-117.1100769
sg17
g1174
sg19
S'619-429-8500'
p1476
sg21
S'CA'
p1477
sg23
S'1325 Iris Avenue'
p1478
sg25
F32.56955
sg26
S'Institutional'
p1479
sba(igenerator
School
p1480
(dp1481
g3
S'www.dellarte.com'
p1482
sg5
S'Blue Lake'
p1483
sg7
S'dellarte.com'
p1484
sg9
g10
(S'\x07\xde\x0c\x0b\x024\x1a\x00\xc4\x11'
p1485
tp1486
Rp1487
sg14
S"Dell'Arte International School of Physical Theatre"
p1488
sg16
F-123.99160905311464
sg17
g1128
sg19
S'707-668-5663-14'
p1489
sg21
S'CA'
p1490
sg23
S'131 H Street'
p1491
sg25
F40.88250180301691
sg26
S'Institutional'
p1492
sba(igenerator
School
p1493
(dp1494
g3
S'www.dtisc.com'
p1495
sg5
S'Panorama City'
p1496
sg7
S'dtisc.com'
p1497
sg9
g10
(S'\x07\xde\x0c\x0b\x024\x1c\x01\xba\xf3'
p1498
tp1499
Rp1500
sg14
S'National Career College'
p1501
sg16
F-118.44620982492279
sg17
g1128
sg19
S'818-381-8351'
p1502
sg21
S'CA'
p1503
sg23
S'14355 Roscoe Blvd., Suite 101'
p1504
sg25
F34.221607885896276
sg26
S'Institutional'
p1505
sba(igenerator
School
p1506
(dp1507
g3
S'www.newpaltz.edu'
p1508
sg5
S'New Paltz'
p1509
sg7
S'newpaltz.edu'
p1510
sg9
g10
(S'\x07\xde\x0c\x0b\x024\x1e\x02\x05\xf5'
p1511
tp1512
Rp1513
sg14
S'SUNY College at New Paltz'
p1514
sg16
F-74.09076206161905
sg17
g1128
sg19
S'845-257-2121'
p1515
sg21
S'NY'
p1516
sg23
S'1 Hawk Drive'
p1517
sg25
F41.73823552525039
sg26
S'Institutional'
p1518
sba(igenerator
School
p1519
(dp1520
g3
S'www.eng4intl.com'
p1521
sg5
S'Roswell'
p1522
sg7
S'eng4intl.com'
p1523
sg9
g10
(S'\x07\xde\x0c\x0b\x024\x1f\x00X-'
p1524
tp1525
Rp1526
sg14
S'English for Internationals, Inc.'
p1527
sg16
F-84.3444963
sg17
g1174
sg19
g71
sg21
S'GA'
p1528
sg23
S'575 Colonial Park Drive'
p1529
sg25
F34.0327296
sg26
S'Institutional'
p1530
sba(igenerator
School
p1531
(dp1532
g3
S'www.bcc.cuny.edu'
p1533
sg5
S'Bronx'
p1534
sg7
S'cuny.edu'
p1535
sg9
g10
(S'\x07\xde\x0c\x0b\x024!\x01\xf6|'
p1536
tp1537
Rp1538
sg14
S'Bronx Community College of the City University of New York'
p1539
sg16
F-73.90972784486337
sg17
g1128
sg19
S'718-284-5100'
p1540
sg21
S'NY'
p1541
sg23
S'2155 University Avenue'
p1542
sg25
F40.857114823891095
sg26
S'Institutional'
p1543
sba(igenerator
School
p1544
(dp1545
g3
S'www.bonsecours.com/son/index.htm'
p1546
sg5
S'Richmond'
p1547
sg7
S'bonsecours.com'
p1548
sg9
g10
(S'\x07\xde\x0c\x0b\x024"\r\xc3X'
p1549
tp1550
Rp1551
sg14
S'Bon Secours Memorial College of Nursing'
p1552
sg16
F-77.433903937416
sg17
g1128
sg19
S'804-627-5300'
p1553
sg21
S'VA'
p1554
sg23
S'8550 Magellan Pkwy #1100'
p1555
sg25
F37.64625512087821
sg26
S'Institutional'
p1556
sba(igenerator
School
p1557
(dp1558
g3
S'www.avemaria.edu'
p1559
sg5
S'Ave Maria'
p1560
sg7
S'avemaria.edu'
p1561
sg9
g10
(S'\x07\xde\x0c\x0b\x024$\x03\x10j'
p1562
tp1563
Rp1564
sg14
S'Ave Maria University'
p1565
sg16
F-81.4344183
sg17
g1174
sg19
g71
sg21
S'FL'
p1566
sg23
S'5050 Ave Maria Boulevard'
p1567
sg25
F26.3138652
sg26
S'Institutional'
p1568
sba(igenerator
School
p1569
(dp1570
g3
S'www.twu.edu'
p1571
sg5
S'Denton'
p1572
sg7
S'twu.edu'
p1573
sg9
g10
(S'\x07\xde\x0c\x0b\x024%\x04Vz'
p1574
tp1575
Rp1576
sg14
S"Texas Woman's University"
p1577
sg16
F-97.1262699
sg17
g1174
sg19
S'940-898-2000'
p1578
sg21
S'TX'
p1579
sg23
S'304 Administration Dr'
p1580
sg25
F33.22649
sg26
S'Institutional'
p1581
sba(igenerator
School
p1582
(dp1583
g3
S'www.iup.edu'
p1584
sg5
S'Indiana'
p1585
sg7
S'iup.edu'
p1586
sg9
g10
(S'\x07\xde\x0c\x0b\x024&\x08\xbb\xb2'
p1587
tp1588
Rp1589
sg14
S'Indiana University of Pennsylvania'
p1590
sg16
F-79.1589979
sg17
g1174
sg19
S'724-357-2100'
p1591
sg21
S'PA'
p1592
sg23
S'1011 South Drive'
p1593
sg25
F40.616759
sg26
S'Institutional'
p1594
sba(igenerator
School
p1595
(dp1596
g3
g71
sg5
S'Rolla'
p1597
sg7
Nsg9
g10
(S'\x07\xde\x0c\x0b\x024(\x0cW,'
p1598
tp1599
Rp1600
sg14
S'Salem College of Hairstyling'
p1601
sg16
F-91.78494262660018
sg17
g1128
sg19
S'573-368-3136'
p1602
sg21
S'MO'
p1603
sg23
S'1051 Kings Hwy, Suite #1'
p1604
sg25
F37.94442549004543
sg26
S'Institutional'
p1605
sba(igenerator
School
p1606
(dp1607
g3
S'www.tidetech.com'
p1608
sg5
S'Chesapeake'
p1609
sg7
S'tidetech.com'
p1610
sg9
g10
(S'\x07\xde\x0c\x0b\x024)\x07\x8d\x96'
p1611
tp1612
Rp1613
sg14
S'Centura College'
p1614
sg16
F-76.2300129
sg17
g1174
sg19
S'757-549-2121'
p1615
sg21
S'VA'
p1616
sg23
S'932b Ventures Way'
p1617
sg25
F36.765357
sg26
S'Institutional'
p1618
sba(igenerator
School
p1619
(dp1620
g3
S'www.westkentucky.kctcs.edu'
p1621
sg5
S'Paducah'
p1622
sg7
S'kctcs.edu'
p1623
sg9
g10
(S'\x07\xde\x0c\x0b\x024*\x04\x9d\x1c'
p1624
tp1625
Rp1626
sg14
S'West Kentucky Community and Technical College'
p1627
sg16
F-88.6545629
sg17
g1174
sg19
S'270-554-9200'
p1628
sg21
S'KY'
p1629
sg23
S'4810 Alben Barkley Drive'
p1630
sg25
F37.057612
sg26
S'Institutional'
p1631
sba(igenerator
School
p1632
(dp1633
g3
g71
sg5
S'Los Angeles'
p1634
sg7
Nsg9
g10
(S'\x07\xde\x0c\x0b\x024,\x05f\xf9'
p1635
tp1636
Rp1637
sg14
S'Benjamin Franklin Community Adult School'
p1638
sg16
F-118.19911681648722
sg17
g1128
sg19
S'323-256-2144'
p1639
sg21
S'CA'
p1640
sg23
S'820 North Avenue 54'
p1641
sg25
F34.11630085090462
sg26
S'Institutional'
p1642
sba(igenerator
School
p1643
(dp1644
g3
g71
sg5
S'Waterford'
p1645
sg7
Nsg9
g10
(S'\x07\xde\x0c\x0b\x024.\x06<Z'
p1646
tp1647
Rp1648
sg14
S'Marketti Academy of Cosmetology'
p1649
sg16
F-83.37542019078836
sg17
g1128
sg19
g71
sg21
S'MI'
p1650
sg23
S'4390 Dixie Highway'
p1651
sg25
F42.6826730806992
sg26
S'Institutional'
p1652
sba(igenerator
School
p1653
(dp1654
g3
S'www.northgatech.edu'
p1655
sg5
S'Clarkesville'
p1656
sg7
S'northgatech.edu'
p1657
sg9
g10
(S'\x07\xde\x0c\x0b\x0240\nJ\x10'
p1658
tp1659
Rp1660
sg14
S'North Georgia Technical College'
p1661
sg16
F-83.53065858132766
sg17
g1128
sg19
S'706-754-7700'
p1662
sg21
S'GA'
p1663
sg23
S'1500 Highway 197 North'
p1664
sg25
F34.637558015391164
sg26
S'Institutional'
p1665
sba(igenerator
School
p1666
(dp1667
g3
S'www.agts.edu'
p1668
sg5
S'Springfield'
p1669
sg7
S'agts.edu'
p1670
sg9
g10
(S'\x07\xde\x0c\x0b\x0242\n\x9f\xac'
p1671
tp1672
Rp1673
sg14
S'Assemblies of God Theological Seminary'
p1674
sg16
F-93.26149484720867
sg17
g1128
sg19
S'417-268-1000'
p1675
sg21
S'MO'
p1676
sg23
S'1435 N Glenstone Ave'
p1677
sg25
F37.224231905579074
sg26
S'Institutional'
p1678
sba(igenerator
School
p1679
(dp1680
g3
S'josefsschoolofhairdesign.com'
p1681
sg5
S'Grand Forks'
p1682
sg7
S'josefsschoolofhairdesign.com'
p1683
sg9
g10
(S'\x07\xde\x0c\x0b\x0243\x08\x17\xa8'
p1684
tp1685
Rp1686
sg14
S"Josef's School of Hair Design Inc"
p1687
sg16
F-97.0452879
sg17
g1174
sg19
S'701-772-2728'
p1688
sg21
S'ND'
p1689
sg23
S'2011 South Washington Street'
p1690
sg25
F47.8676415
sg26
S'Institutional'
p1691
sba(igenerator
School
p1692
(dp1693
g3
S'designsschool.com'
p1694
sg5
S'Paso Robles'
p1695
sg7
S'designsschool.com'
p1696
sg9
g10
(S'\x07\xde\x0c\x0b\x0244\x0cK\xd1'
p1697
tp1698
Rp1699
sg14
S"Design's School of Cosmetology"
p1700
sg16
F-120.6722529
sg17
g1174
sg19
S'805-237-8575'
p1701
sg21
S'CA'
p1702
sg23
S'2727 Buena Vista Drive'
p1703
sg25
F35.6549158
sg26
S'Institutional'
p1704
sba(igenerator
School
p1705
(dp1706
g3
g71
sg5
S'Brooklyn'
p1707
sg7
Nsg9
g10
(S'\x07\xde\x0c\x0b\x0245\x0c\xce\x12'
p1708
tp1709
Rp1710
sg14
S'Yeshiva Karlin Stolin'
p1711
sg16
F-73.9833548296616
sg17
g1174
sg19
S'718-232-7800'
p1712
sg21
S'NY'
p1713
sg23
S'1818 54th St'
p1714
sg25
F40.6248926
sg26
S'Institutional'
p1715
sba(igenerator
School
p1716
(dp1717
g3
S'www.centralchristian.edu'
p1718
sg5
S'McPherson'
p1719
sg7
S'centralchristian.edu'
p1720
sg9
g10
(S'\x07\xde\x0c\x0b\x0247\x08v\x81'
p1721
tp1722
Rp1723
sg14
S'Central Christian College of Kansas'
p1724
sg16
F-97.66694592611287
sg17
g1128
sg19
S'620-241-0723'
p1725
sg21
S'KS'
p1726
sg23
S'1200 S Main'
p1727
sg25
F38.358200505749835
sg26
S'Institutional'
p1728
sba(igenerator
School
p1729
(dp1730
g3
g71
sg5
S'North Adams'
p1731
sg7
Nsg9
g10
(S'\x07\xde\x0c\x0b\x0249\t\x1e/'
p1732
tp1733
Rp1734
sg14
S'Charles H McCann Technical School'
p1735
sg16
F-73.1024438621937
sg17
g1128
sg19
S'413-663-5383-181'
p1736
sg21
S'MA'
p1737
sg23
S'70 Hodges Cross Rd'
p1738
sg25
F42.665188255534645
sg26
S'Institutional'
p1739
sba(igenerator
School
p1740
(dp1741
g3
S'www.piu.edu'
p1742
sg5
S'Mangilao'
p1743
sg7
S'piu.edu'
p1744
sg9
g10
(S'\x07\xde\x0c\x0b\x024;\t~7'
p1745
tp1746
Rp1747
sg14
S'Pacific Islands University'
p1748
sg16
F-86.90597754792469
sg17
g1128
sg19
S'671-734-1812'
p1749
sg21
S'GU'
p1750
sg23
S"172 Kinney's Road"
p1751
sg25
F37.119263553471285
sg26
S'Institutional'
p1752
sba(igenerator
School
p1753
(dp1754
g3
S'www.hartford.dalecarnegie.com'
p1755
sg5
S'West Hartford'
p1756
sg7
S'dalecarnegie.com'
p1757
sg9
g10
(S'\x07\xde\x0c\x0b\x025\x00\x06d\xa2'
p1758
tp1759
Rp1760
sg14
S'M.J. Francoeur & Associates Dale Carnegie Training'
p1761
sg16
F-72.7470473
sg17
g1174
sg19
g71
sg21
S'CT'
p1762
sg23
S'8 Ellsworth Road'
p1763
sg25
F41.7578308
sg26
S'Institutional'
p1764
sba(igenerator
School
p1765
(dp1766
g3
S'www.walsh.edu'
p1767
sg5
S'North Canton'
p1768
sg7
S'walsh.edu'
p1769
sg9
g10
(S'\x07\xde\x0c\x0b\x025\x01\x0b\xa6\xe4'
p1770
tp1771
Rp1772
sg14
S'Walsh University'
p1773
sg16
F-81.3890059
sg17
g1174
sg19
S'330-499-7090'
p1774
sg21
S'OH'
p1775
sg23
S'2020 East Maple St'
p1776
sg25
F40.87545
sg26
S'Institutional'
p1777
sba(igenerator
School
p1778
(dp1779
g3
S'www.buffalo.edu'
p1780
sg5
S'Buffalo'
p1781
sg7
S'buffalo.edu'
p1782
sg9
g10
(S'\x07\xde\x0c\x0b\x025\x03\x0cd6'
p1783
tp1784
Rp1785
sg14
S'SUNY Buffalo'
p1786
sg16
F-78.78943082717012
sg17
g1128
sg19
S'716-645-2000'
p1787
sg21
S'NY'
p1788
sg23
S'501 Capen Hall'
p1789
sg25
F43.00032777910479
sg26
S'Institutional'
p1790
sba(igenerator
School
p1791
(dp1792
g3
g71
sg5
S'Lebanon'
p1793
sg7
Nsg9
g10
(S'\x07\xde\x0c\x0b\x025\x05\x01-\xe9'
p1794
tp1795
Rp1796
sg14
S'Lebanon Technology and Career Center'
p1797
sg16
F-92.6815009
sg17
g1174
sg19
S'417-532-5494'
p1798
sg21
S'MO'
p1799
sg23
S'757 Brice St'
p1800
sg25
F37.692097
sg26
S'Institutional'
p1801
sba(igenerator
School
p1802
(dp1803
g3
S'www.warner.edu'
p1804
sg5
S'Lake Wales'
p1805
sg7
S'warner.edu'
p1806
sg9
g10
(S'\x07\xde\x0c\x0b\x025\x07\x02z\x04'
p1807
tp1808
Rp1809
sg14
S'Warner University'
p1810
sg16
F-81.59379339055175
sg17
g1128
sg19
S'863-638-1426'
p1811
sg21
S'FL'
p1812
sg23
S'13895 Hwy 27'
p1813
sg25
F27.824108137181838
sg26
S'Institutional'
p1814
sba(igenerator
School
p1815
(dp1816
g3
S'www.imperial.edu'
p1817
sg5
S'Imperial'
p1818
sg7
S'imperial.edu'
p1819
sg9
g10
(S'\x07\xde\x0c\x0b\x025\t\x03\x85Y'
p1820
tp1821
Rp1822
sg14
S'Imperial Valley College'
p1823
sg16
F-115.50540111526857
sg17
g1128
sg19
S'760-352-8320-100'
p1824
sg21
S'CA'
p1825
sg23
S'380 E. Aten Road'
p1826
sg25
F32.82553780732502
sg26
S'Institutional'
p1827
sba(igenerator
School
p1828
(dp1829
g3
S'www.chisholmtrail.com'
p1830
sg5
S'Omega'
p1831
sg7
S'chisholmtrail.com'
p1832
sg9
g10
(S'\x07\xde\x0c\x0b\x025\x0b\x00\xca]'
p1833
tp1834
Rp1835
sg14
S'Chisholm Trail Technology Center'
p1836
sg16
F-98.17101176278186
sg17
g1128
sg19
S'405-729-8324'
p1837
sg21
S'OK'
p1838
sg23
S'State Highway 33'
p1839
sg25
F35.84109224521205
sg26
S'Institutional'
p1840
sba(igenerator
School
p1841
(dp1842
g3
S'www.lc.edu'
p1843
sg5
S'Godfrey'
p1844
sg7
S'lc.edu'
p1845
sg9
g10
(S'\x07\xde\x0c\x0b\x025\x0b\r(F'
p1846
tp1847
Rp1848
sg14
S'Lewis and Clark Community College'
p1849
sg16
F-90.2029879
sg17
g1174
sg19
S'618-468-3411'
p1850
sg21
S'IL'
p1851
sg23
S'5800 Godfrey Rd'
p1852
sg25
F38.980364
sg26
S'Institutional'
p1853
sba(igenerator
School
p1854
(dp1855
g3
S'www.50states.com/cc/detail/mo/417673.htm'
p1856
sg5
S'Nevada'
p1857
sg7
S'50states.com'
p1858
sg9
g10
(S'\x07\xde\x0c\x0b\x025\r\x0cO1'
p1859
tp1860
Rp1861
sg14
S'Nevada Regional Technical Center'
p1862
sg16
F-94.36841017468907
sg17
g1128
sg19
S'417-448-2090'
p1863
sg21
S'MO'
p1864
sg23
S'900 West Ashland'
p1865
sg25
F37.844898135241806
sg26
S'Institutional'
p1866
sba(igenerator
School
p1867
(dp1868
g3
S'www.bridgemont.edu/'
p1869
sg5
S'Montgomery'
p1870
sg7
S'bridgemont.edu'
p1871
sg9
g10
(S'\x07\xde\x0c\x0b\x025\x0e\x0c\xad]'
p1872
tp1873
Rp1874
sg14
S'Bridgemont Community and Technical College'
p1875
sg16
F-81.3352123
sg17
g1174
sg19
S'304-442-3071'
p1876
sg21
S'WV'
p1877
sg23
S'619 2nd Avenue'
p1878
sg25
F38.1800638
sg26
S'Institutional'
p1879
sba(igenerator
School
p1880
(dp1881
g3
S'www.ace.fuhsd.org'
p1882
sg5
S'Sunnyvale'
p1883
sg7
S'fuhsd.org'
p1884
sg9
g10
(S'\x07\xde\x0c\x0b\x025\x10\x02x\xf1'
p1885
tp1886
Rp1887
sg14
S'Sunnyvale - Cupertino Adult & Community Education'
p1888
sg16
F-122.0334416
sg17
g1174
sg19
S'408-522-2700'
p1889
sg21
S'CA'
p1890
sg23
S'591 W. Fremont Avenue'
p1891
sg25
F37.3520378
sg26
S'Institutional'
p1892
sba(igenerator
School
p1893
(dp1894
g3
S'www.utm.edu'
p1895
sg5
S'Martin'
p1896
sg7
S'utm.edu'
p1897
sg9
g10
(S'\x07\xde\x0c\x0b\x025\x11\x05i\xbd'
p1898
tp1899
Rp1900
sg14
S'The University of Tennessee - Martin'
p1901
sg16
F-88.8826476
sg17
g1174
sg19
S'731-881-7000'
p1902
sg21
S'TN'
p1903
sg23
S'University Street'
p1904
sg25
F36.3517393
sg26
S'Institutional'
p1905
sba(igenerator
School
p1906
(dp1907
g3
g71
sg5
S'Kansas'
p1908
sg7
Nsg9
g10
(S'\x07\xde\x0c\x0b\x025\x13\x04\x84\x12'
p1909
tp1910
Rp1911
sg14
S'Northeast Technology Center - Kansas'
p1912
sg16
F-94.77962038507195
sg17
g1128
sg19
S'918-868-3535'
p1913
sg21
S'OK'
p1914
sg23
S'450 N Hwy 59'
p1915
sg25
F36.209873719397706
sg26
S'Institutional'
p1916
sba(igenerator
School
p1917
(dp1918
g3
g71
sg5
S'Corinth'
p1919
sg7
Nsg9
g10
(S'\x07\xde\x0c\x0b\x025\x14\x00i\xec'
p1920
tp1921
Rp1922
sg14
S'Corinth Academy of Cosmetology, Inc'
p1923
sg16
F-88.5189765
sg17
g1174
sg19
g71
sg21
S'MS'
p1924
sg23
S'502 Cruise Street'
p1925
sg25
F34.9339083
sg26
S'Institutional'
p1926
sba(igenerator
School
p1927
(dp1928
g3
S'starinstitute.com'
p1929
sg5
S'Philadelphia'
p1930
sg7
S'starinstitute.com'
p1931
sg9
g10
(S'\x07\xde\x0c\x0b\x025\x15\x05\x81@'
p1932
tp1933
Rp1934
sg14
S'Star Career Academy - Philadelphia'
p1935
sg16
F-75.0272149
sg17
g1174
sg19
S'215-969-5877'
p1936
sg21
S'PA'
p1937
sg23
S'2371 Welsh Road'
p1938
sg25
F40.052216
sg26
S'Institutional'
p1939
sba(igenerator
School
p1940
(dp1941
g3
S'www.auhsd.k12.ca.us'
p1942
sg5
S'Anaheim'
p1943
sg7
S'k12.ca.us'
p1944
sg9
g10
(S'\x07\xde\x0c\x0b\x025\x17\x07\xc9*'
p1945
tp1946
Rp1947
sg14
S'Anaheim Adult Education School'
p1948
sg16
F-117.9465285771314
sg17
g1128
sg19
S'714-999-5616'
p1949
sg21
S'CA'
p1950
sg23
S'1800 W. Ball Road, Room 31'
p1951
sg25
F33.81787368842106
sg26
S'Institutional'
p1952
sba(igenerator
School
p1953
(dp1954
g3
S'www.cet2000.org'
p1955
sg5
S'San Diego'
p1956
sg7
S'cet2000.org'
p1957
sg9
g10
(S'\x07\xde\x0c\x0b\x025\x19\x07\xd0A'
p1958
tp1959
Rp1960
sg14
S'Center for Employment Training - San Diego'
p1961
sg16
F-117.1226521971405
sg17
g1128
sg19
S'408-287-7924'
p1962
sg21
S'CA'
p1963
sg23
S'3295 Market St'
p1964
sg25
F32.71174155712822
sg26
S'Institutional'
p1965
sba(igenerator
School
p1966
(dp1967
g3
S'www.siom.edu'
p1968
sg5
S'Seattle'
p1969
sg7
S'siom.edu'
p1970
sg9
g10
(S'\x07\xde\x0c\x0b\x025\x1b\x0c`\x0b'
p1971
tp1972
Rp1973
sg14
S'Seattle Institute of Oriental Medicine'
p1974
sg16
F-122.32363582743079
sg17
g1128
sg19
S'206-517-4541'
p1975
sg21
S'WA'
p1976
sg23
S'444 NE Ravenna Blvd. Suite 101'
p1977
sg25
F47.67784199811081
sg26
S'Institutional'
p1978
sba(igenerator
School
p1979
(dp1980
g3
g71
sg5
S'Clarksville'
p1981
sg7
Nsg9
g10
(S'\x07\xde\x0c\x0b\x025\x1c\n\x80\xf1'
p1982
tp1983
Rp1984
sg14
S'Daymar Institute - Clarksville'
p1985
sg16
F-87.3168899
sg17
g1174
sg19
g71
sg21
S'TN'
p1986
sg23
S'2691 Trenton Road'
p1987
sg25
F36.6306784
sg26
S'Institutional'
p1988
sba(igenerator
School
p1989
(dp1990
g3
S'www.tntech.edu'
p1991
sg5
S'Cookeville'
p1992
sg7
S'tntech.edu'
p1993
sg9
g10
(S'\x07\xde\x0c\x0b\x025\x1d\x0e\xadY'
p1994
tp1995
Rp1996
sg14
S'Tennessee Technological University'
p1997
sg16
F-85.5041389303056
sg17
g1174
sg19
S'931-372-3223'
p1998
sg21
S'TN'
p1999
sg23
S'1 William L. Jones Drive'
p2000
sg25
F36.17466935
sg26
S'Institutional'
p2001
sba(igenerator
School
p2002
(dp2003
g3
S'www.daviscollege.edu'
p2004
sg5
S'Toledo'
p2005
sg7
S'daviscollege.edu'
p2006
sg9
g10
(S'\x07\xde\x0c\x0b\x025 \x00\x85\xe6'
p2007
tp2008
Rp2009
sg14
S'Davis College'
p2010
sg16
F-83.62969329740696
sg17
g1128
sg19
S'419-473-2700'
p2011
sg21
S'OH'
p2012
sg23
S'4747 Monroe St'
p2013
sg25
F41.692775023349725
sg26
S'Institutional'
p2014
sba(igenerator
School
p2015
(dp2016
g3
g71
sg5
S'Louisville'
p2017
sg7
Nsg9
g10
(S'\x07\xde\x0c\x0b\x025 \x0e\xd6$'
p2018
tp2019
Rp2020
sg14
S'American College of Barbering'
p2021
sg16
F-85.6675245
sg17
g1174
sg19
g71
sg21
S'KY'
p2022
sg23
S'11320 North Preston Highway'
p2023
sg25
F38.0849991
sg26
S'Institutional'
p2024
sba(igenerator
School
p2025
(dp2026
g3
S'www.eosc.edu'
p2027
sg5
S'Wilburton'
p2028
sg7
S'eosc.edu'
p2029
sg9
g10
(S'\x07\xde\x0c\x0b\x025*\r\xaaV'
p2030
tp2031
Rp2032
sg14
S'Eastern Oklahoma State College'
p2033
sg16
F-95.32751758646668
sg17
g1128
sg19
S'918-465-2361-288'
p2034
sg21
S'OK'
p2035
sg23
S'1301 W. Main'
p2036
sg25
F34.912989159723
sg26
S'Institutional'
p2037
sba(igenerator
School
p2038
(dp2039
g3
S'www.ku.edu'
p2040
sg5
S'Lawrence'
p2041
sg7
S'ku.edu'
p2042
sg9
g10
(S'\x07\xde\x0c\x0b\x025,\x0e\xee\xaf'
p2043
tp2044
Rp2045
sg14
S'University of Kansas'
p2046
sg16
F-95.23652918117602
sg17
g1128
sg19
S'785-864-2700'
p2047
sg21
S'KS'
p2048
sg23
S'230 Strong Hall 1450 Jayhawk Blvd.'
p2049
sg25
F38.973063431833
sg26
S'Institutional'
p2050
sba(igenerator
School
p2051
(dp2052
g3
g71
sg5
S'Sarasota'
p2053
sg7
Nsg9
g10
(S'\x07\xde\x0c\x0b\x025-\x0e\xad\xc5'
p2054
tp2055
Rp2056
sg14
S'Fashion Focus Hair Academy'
p2057
sg16
F-82.5059509
sg17
g1174
sg19
S'941-921-4877'
p2058
sg21
S'FL'
p2059
sg23
S'2184 Gulf Gate Dr'
p2060
sg25
F27.256541
sg26
S'Institutional'
p2061
sba(igenerator
School
p2062
(dp2063
g3
S'www.up.edu'
p2064
sg5
S'Portland'
p2065
sg7
S'up.edu'
p2066
sg9
g10
(S'\x07\xde\x0c\x0b\x025.\x0e\x05!'
p2067
tp2068
Rp2069
sg14
S'University of Portland'
p2070
sg16
F-122.7477265
sg17
g1174
sg19
S'503-943-7911'
p2071
sg21
S'OR'
p2072
sg23
S'5000 N Willamette Blvd'
p2073
sg25
F45.5848101
sg26
S'Institutional'
p2074
sba(igenerator
School
p2075
(dp2076
g3
S'www.jjay.cuny.edu'
p2077
sg5
S'New York'
p2078
sg7
S'cuny.edu'
p2079
sg9
g10
(S'\x07\xde\x0c\x0b\x0251\x00\x82\x06'
p2080
tp2081
Rp2082
sg14
S'John Jay College of Criminal Justice of the City University of New York'
p2083
sg16
F-73.98799710338278
sg17
g1128
sg19
S'212-237-8000'
p2084
sg21
S'NY'
p2085
sg23
S'899 Tenth Ave'
p2086
sg25
F40.76994938985354
sg26
S'Institutional'
p2087
sba(igenerator
School
p2088
(dp2089
g3
g71
sg5
S'San Francisco'
p2090
sg7
Nsg9
g10
(S'\x07\xde\x0c\x0b\x0253\x01\xcf\xb2'
p2091
tp2092
Rp2093
sg14
S'Dale Carnegie Training San Francisco Center of Excellence'
p2094
sg16
F-122.40220646765368
sg17
g1128
sg19
g71
sg21
S'CA'
p2095
sg23
S'465 California Street, Suite 830'
p2096
sg25
F37.79295327047811
sg26
S'Institutional'
p2097
sba(igenerator
School
p2098
(dp2099
g3
S'www.stmary.edu'
p2100
sg5
S'Leavenworth'
p2101
sg7
S'stmary.edu'
p2102
sg9
g10
(S'\x07\xde\x0c\x0b\x0255\tg\x01'
p2103
tp2104
Rp2105
sg14
S'University of Saint Mary'
p2106
sg16
F14.18889996000047
sg17
g1128
sg19
S'913-682-5151'
p2107
sg21
S'KS'
p2108
sg23
S'4100 S 4th St Trafficway'
p2109
sg25
F48.337899912000466
sg26
S'Institutional'
p2110
sba(igenerator
School
p2111
(dp2112
g3
S'www.cuyamaca.net/'
p2113
sg5
S'El Cajon'
p2114
sg7
S'cuyamaca.net'
p2115
sg9
g10
(S'\x07\xde\x0c\x0b\x0257\x0b\xb2\x92'
p2116
tp2117
Rp2118
sg14
S'Cuyamaca College'
p2119
sg16
F-116.94000004066862
sg17
g1128
sg19
S'619-660-4000'
p2120
sg21
S'CA'
p2121
sg23
S'900 Rancho San Diego Pky'
p2122
sg25
F32.745896697775436
sg26
S'Institutional'
p2123
sba(igenerator
School
p2124
(dp2125
g3
S'www.cecil.edu'
p2126
sg5
S'North East'
p2127
sg7
S'cecil.edu'
p2128
sg9
g10
(S'\x07\xde\x0c\x0b\x025;\x01\x0cX'
p2129
tp2130
Rp2131
sg14
S'Cecil Community College'
p2132
sg16
F-76.701249
sg17
S'geopy.geocoders.yandex'
p2133
sg19
S'410-287-6060'
p2134
sg21
S'MD'
p2135
sg23
S'One Seahawk Dr'
p2136
sg25
F38.952723
sg26
S'Institutional'
p2137
sba(igenerator
School
p2138
(dp2139
g3
g71
sg5
S'Tampa'
p2140
sg7
Nsg9
g10
(S'\x07\xde\x0c\x0b\x026\x00\t\xdc]'
p2141
tp2142
Rp2143
sg14
S'The Salon Professional Academy - Tampa'
p2144
sg16
F-82.52379658704206
sg17
g1128
sg19
g71
sg21
S'FL'
p2145
sg23
S'4802 Gunn Highway, Ste 144'
p2146
sg25
F28.052076724162532
sg26
S'Institutional'
p2147
sba(igenerator
School
p2148
(dp2149
g3
S'www.lincolntech.com'
p2150
sg5
S'Columbia'
p2151
sg7
S'lincolntech.com'
p2152
sg9
g10
(S'\x07\xde\x0c\x0b\x026\x02\x0b\xdf\r'
p2153
tp2154
Rp2155
sg14
S'Lincoln Technical Institute'
p2156
sg16
F-76.8374782608123
sg17
g1128
sg19
S'410-290-7100'
p2157
sg21
S'MD'
p2158
sg23
S'9325 Snowden River Pky'
p2159
sg25
F39.17574330141332
sg26
S'Institutional'
p2160
sba(igenerator
School
p2161
(dp2162
g3
S'www.hihd.net'
p2163
sg5
S'Honolulu'
p2164
sg7
S'hihd.net'
p2165
sg9
g10
(S'\x07\xde\x0c\x0b\x026\x04\x07\xfd\x01'
p2166
tp2167
Rp2168
sg14
S'Hawaii Institute of Hair Design'
p2169
sg16
F-157.8615234055801
sg17
g1128
sg19
S'808-533-6596'
p2170
sg21
S'HI'
p2171
sg23
S'1128 Nuuanu Avenue, Suite 102'
p2172
sg25
F21.31135485704209
sg26
S'Institutional'
p2173
sba(igenerator
School
p2174
(dp2175
g3
S'www.bankstreet.edu'
p2176
sg5
S'New York'
p2177
sg7
S'bankstreet.edu'
p2178
sg9
g10
(S'\x07\xde\x0c\x0b\x026\x06\t\xac\xc9'
p2179
tp2180
Rp2181
sg14
S'Bank Street College of Education'
p2182
sg16
F-73.96610990434777
sg17
g1128
sg19
S'212-875-4400'
p2183
sg21
S'NY'
p2184
sg23
S'610 W 112 St'
p2185
sg25
F40.80557926846956
sg26
S'Institutional'
p2186
sba(igenerator
School
p2187
(dp2188
g3
S'www.albright.edu'
p2189
sg5
S'Reading'
p2190
sg7
S'albright.edu'
p2191
sg9
g10
(S'\x07\xde\x0c\x0b\x026\n\x0c\x84d'
p2192
tp2193
Rp2194
sg14
S'Albright College'
p2195
sg16
F-75.9115779
sg17
g1174
sg19
S'610-921-2381'
p2196
sg21
S'PA'
p2197
sg23
S'1621 N. 13th St.'
p2198
sg25
F40.360556
sg26
S'Institutional'
p2199
sba(igenerator
School
p2200
(dp2201
g3
S'www.beautyacademyofsouthflorida.com'
p2202
sg5
S'Hialeah Gardens'
p2203
sg7
S'beautyacademyofsouthflorida.com'
p2204
sg9
g10
(S'\x07\xde\x0c\x0b\x026\x0c\x00\xbdm'
p2205
tp2206
Rp2207
sg14
S'Beauty Academy of South Florida'
p2208
sg16
F-80.3232788
sg17
g1174
sg19
S'305-817-3577'
p2209
sg21
S'FL'
p2210
sg23
S'9800 NW 77th Avenue'
p2211
sg25
F25.8666303
sg26
S'Institutional'
p2212
sba(igenerator
School
p2213
(dp2214
g3
g71
sg5
S'Mayaguez'
p2215
sg7
Nsg9
g10
(S'\x07\xde\x0c\x0b\x026\x0e\x07\xba\xa1'
p2216
tp2217
Rp2218
sg14
S'Escuela Hotelera de San Juan - Maaguez'
p2219
sg16
F-67.14689998499966
sg17
g1128
sg19
S'787-806-4200'
p2220
sg21
S'PR'
p2221
sg23
S'Road 114, KO Western Industrial, Park BO Guanajibo'
p2222
sg25
F18.203680009000436
sg26
S'Institutional'
p2223
sba(igenerator
School
p2224
(dp2225
g3
g71
sg5
S'Holly Springs'
p2226
sg7
Nsg9
g10
(S'\x07\xde\x0c\x0b\x026\x0f\x0bhy'
p2227
tp2228
Rp2229
sg14
S'New School Montessori Center'
p2230
sg16
F-78.8153749
sg17
g1174
sg19
S'919-639-8688'
p2231
sg21
S'NC'
p2232
sg23
S'5617 Sunset Lake Road'
p2233
sg25
F35.679535
sg26
S'Institutional'
p2234
sba(igenerator
School
p2235
(dp2236
g3
S'www.hlpusd.k12.ca.us'
p2237
sg5
S'City of Industry'
p2238
sg7
S'k12.ca.us'
p2239
sg9
g10
(S'\x07\xde\x0c\x0b\x026\x11\r\x95X'
p2240
tp2241
Rp2242
sg14
S'Hacienda La Puente Unified School District-Adult Education'
p2243
sg16
F-117.95898128625663
sg17
g1128
sg19
S'626-933-3914'
p2244
sg21
S'CA'
p2245
sg23
S'15959 E Gale Ave'
p2246
sg25
F34.00963758071083
sg26
S'Institutional'
p2247
sba(igenerator
School
p2248
(dp2249
g3
S'www.lancasterseminary.edu'
p2250
sg5
S'Lancaster'
p2251
sg7
S'lancasterseminary.edu'
p2252
sg9
g10
(S'\x07\xde\x0c\x0b\x026\x14\x00\xact'
p2253
tp2254
Rp2255
sg14
S'Lancaster Theological Seminary'
p2256
sg16
F-76.31766819453077
sg17
g1128
sg19
S'717-290-8701'
p2257
sg21
S'PA'
p2258
sg23
S'555 W James St'
p2259
sg25
F40.04488660153652
sg26
S'Institutional'
p2260
sba(igenerator
School
p2261
(dp2262
g3
S'www.artic.edu/saic'
p2263
sg5
S'Chicago'
p2264
sg7
S'artic.edu'
p2265
sg9
g10
(S'\x07\xde\x0c\x0b\x026\x15\x02\xf7\xa8'
p2266
tp2267
Rp2268
sg14
S'School of the Art Institute of Chicago'
p2269
sg16
F-87.6243273
sg17
g1174
sg19
S'312-899-5100'
p2270
sg21
S'IL'
p2271
sg23
S'37 S Wabash'
p2272
sg25
F41.8038276
sg26
S'Institutional'
p2273
sba(igenerator
School
p2274
(dp2275
g3
S'www.brazosport.edu'
p2276
sg5
S'Lake Jackson'
p2277
sg7
S'brazosport.edu'
p2278
sg9
g10
(S'\x07\xde\x0c\x0b\x026\x17\x03\x96\x97'
p2279
tp2280
Rp2281
sg14
S'Brazosport College'
p2282
sg16
F-95.4096828969474
sg17
g1128
sg19
S'979-230-3000'
p2283
sg21
S'TX'
p2284
sg23
S'500 College Dr'
p2285
sg25
F29.044419475179723
sg26
S'Institutional'
p2286
sba(igenerator
School
p2287
(dp2288
g3
S'www.csudh.edu'
p2289
sg5
S'Carson'
p2290
sg7
S'csudh.edu'
p2291
sg9
g10
(S'\x07\xde\x0c\x0b\x02+\x07\t\x07\x00'
p2292
tp2293
Rp2294
sg14
S'California State University - Dominguez Hills'
p2295
sg16
F-118.25741027526328
sg17
S'geopy.geocoders.arcgis'
p2296
sg19
S'310-243-3300'
p2297
sg21
S'CA'
p2298
sg23
S'1000 E Victoria St'
p2299
sg25
F33.86721889283871
sg26
S'Institutional'
p2300
sba(igenerator
School
p2301
(dp2302
g3
g71
sg5
S'Miami'
p2303
sg7
Nsg9
g10
(S'\x07\xde\x0c\x0b\x02+\t\x0eX\xf9'
p2304
tp2305
Rp2306
sg14
S'Health Opportunity Technical Center, Inc.'
p2307
sg16
F-80.20514055059516
sg17
g2296
sg19
S'305-249-2275'
p2308
sg21
S'FL'
p2309
sg23
S'18441 NW 2nd Avenue, Suite 300'
p2310
sg25
F25.94390224529343
sg26
S'Institutional'
p2311
sba(igenerator
School
p2312
(dp2313
g3
S'www.king.edu'
p2314
sg5
S'Bristol'
p2315
sg7
S'king.edu'
p2316
sg9
g10
(S'\x07\xde\x0c\x0b\x02+\x0b\x00NM'
p2317
tp2318
Rp2319
sg14
S'King University'
p2320
sg16
F-82.1453614
sg17
S'geopy.geocoders.osm'
p2321
sg19
S'423-968-1187'
p2322
sg21
S'TN'
p2323
sg23
S'1350 King College Rd'
p2324
sg25
F36.5842855
sg26
S'Institutional'
p2325
sba(igenerator
School
p2326
(dp2327
g3
S'www.ibmcedu.com'
p2328
sg5
S'Fort Collins'
p2329
sg7
S'ibmcedu.com'
p2330
sg9
g10
(S'\x07\xde\x0c\x0b\x02+\x0c\x00\xa9\xcf'
p2331
tp2332
Rp2333
sg14
S'IBMC College - Fort Collins'
p2334
sg16
F-105.0789898
sg17
g2321
sg19
S'970-223-2669'
p2335
sg21
S'CO'
p2336
sg23
S'3842 South Mason Street'
p2337
sg25
F40.5790748
sg26
S'Institutional'
p2338
sba(igenerator
School
p2339
(dp2340
g3
g71
sg5
S'Oklahoma'
p2341
sg7
Nsg9
g10
(S'\x07\xde\x0c\x0b\x02+\r\x04\rH'
p2342
tp2343
Rp2344
sg14
S"JB's Hair Design and Barber College, LLC"
p2345
sg16
F-97.5300843
sg17
g2321
sg19
g71
sg21
S'OK'
p2346
sg23
S'6008 South Western Avenue'
p2347
sg25
F35.4626194
sg26
S'Institutional'
p2348
sba(igenerator
School
p2349
(dp2350
g3
S'www.williamtyndale.edu'
p2351
sg5
S'Farmington Hills'
p2352
sg7
S'williamtyndale.edu'
p2353
sg9
g10
(S'\x07\xde\x0c\x0b\x02+\x0f\x05\xf6\t'
p2354
tp2355
Rp2356
sg14
S'William Tyndale College'
p2357
sg16
F-83.40093078892397
sg17
g2296
sg19
S'800-483-0707'
p2358
sg21
S'MI'
p2359
sg23
S'35700 W Twelve Mile Road'
p2360
sg25
F42.49809671769049
sg26
S'Institutional'
p2361
sba(igenerator
School
p2362
(dp2363
g3
S'www.cu-portland.edu'
p2364
sg5
S'Portland'
p2365
sg7
S'cu-portland.edu'
p2366
sg9
g10
(S'\x07\xde\x0c\x0b\x02+\x10\x06(p'
p2367
tp2368
Rp2369
sg14
S'Concordia University'
p2370
sg16
F-122.5482595
sg17
g2321
sg19
S'503-288-9371'
p2371
sg21
S'OR'
p2372
sg23
S'2811 NE Holman Street'
p2373
sg25
F45.5681861
sg26
S'Institutional'
p2374
sba(igenerator
School
p2375
(dp2376
g3
S'www.brookhavencollege.edu'
p2377
sg5
S'Farmers Branch'
p2378
sg7
S'brookhavencollege.edu'
p2379
sg9
g10
(S'\x07\xde\x0c\x0b\x02+\x11\n\xc7\xf7'
p2380
tp2381
Rp2382
sg14
S'Brookhaven College'
p2383
sg16
F-96.9362788
sg17
g2321
sg19
S'972-860-4700'
p2384
sg21
S'TX'
p2385
sg23
S'3939 Valley View Lane'
p2386
sg25
F32.9147138
sg26
S'Institutional'
p2387
sba(igenerator
School
p2388
(dp2389
g3
S'www.ippt.com'
p2390
sg5
S'North Hollywood'
p2391
sg7
S'ippt.com'
p2392
sg9
g10
(S'\x07\xde\x0c\x0b\x02+\x12\x0e\xfa\x1d'
p2393
tp2394
Rp2395
sg14
S'Southern California Health Institute'
p2396
sg16
F-118.3833879
sg17
g2321
sg19
S'818-980-8990'
p2397
sg21
S'CA'
p2398
sg23
S'5200 Lankershim Boulevard'
p2399
sg25
F34.1794129
sg26
S'Institutional'
p2400
sba(igenerator
School
p2401
(dp2402
g3
S'www.wbi.edu'
p2403
sg5
S'Panorama City'
p2404
sg7
S'wbi.edu'
p2405
sg9
g10
(S'\x07\xde\x0c\x0b\x02+\x15\x00\x90`'
p2406
tp2407
Rp2408
sg14
S'Western Beauty Institute'
p2409
sg16
F-118.44990980129558
sg17
g2296
sg19
S'818-894-9550'
p2410
sg21
S'CA'
p2411
sg23
S'8700 Van Nuys Blvd'
p2412
sg25
F34.22721258499388
sg26
S'Institutional'
p2413
sba(igenerator
School
p2414
(dp2415
g3
g71
sg5
S'Wheeling'
p2416
sg7
Nsg9
g10
(S'\x07\xde\x0c\x0b\x02+\x16\t~1'
p2417
tp2418
Rp2419
sg14
S'Chicago Professional Center'
p2420
sg16
F-87.92905033290577
sg17
g2296
sg19
g71
sg21
S'IL'
p2421
sg23
S'500 Harvester Court, Unit 6'
p2422
sg25
F42.12962695212326
sg26
S'Institutional'
p2423
sba(igenerator
School
p2424
(dp2425
g3
S'www.apollocollege.edu'
p2426
sg5
S'Phoenix'
p2427
sg7
S'apollocollege.edu'
p2428
sg9
g10
(S'\x07\xde\x0c\x0b\x02+\x17\n\x0f\xf0'
p2429
tp2430
Rp2431
sg14
S'Carrington College - Phoenix'
p2432
sg16
F-112.1173088
sg17
g2321
sg19
S'602-433-1333'
p2433
sg21
S'AZ'
p2434
sg23
S'8503 N 27th Ave'
p2435
sg25
F33.4606132
sg26
S'Institutional'
p2436
sba(igenerator
School
p2437
(dp2438
g3
S'www.bryman-college.com'
p2439
sg5
S'San Bernardino'
p2440
sg7
S'bryman-college.com'
p2441
sg9
g10
(S'\x07\xde\x0c\x0b\x02+\x19\x0ee\x84'
p2442
tp2443
Rp2444
sg14
S'Everest College - San Bernardino'
p2445
sg16
F-117.2821597557674
sg17
g2296
sg19
S'909-777-3300'
p2446
sg21
S'CA'
p2447
sg23
S'217 Club Center Drive, Ste. A'
p2448
sg25
F34.06041287895226
sg26
S'Institutional'
p2449
sba(igenerator
School
p2450
(dp2451
g3
S'www.milaninstitute.edu'
p2452
sg5
S'San Antonio'
p2453
sg7
S'milaninstitute.edu'
p2454
sg9
g10
(S'\x07\xde\x0c\x0b\x02+\x1b\x03\xc8/'
p2455
tp2456
Rp2457
sg14
S'Milan Institute - San Antonio'
p2458
sg16
F-98.6099069
sg17
g2321
sg19
S'210-647-5100'
p2459
sg21
S'TX'
p2460
sg23
S'6804 Ingram Road'
p2461
sg25
F29.466363
sg26
S'Institutional'
p2462
sba(igenerator
School
p2463
(dp2464
g3
g71
sg5
S'Kearney'
p2465
sg7
Nsg9
g10
(S'\x07\xde\x0c\x0b\x02+\x1b\x0e\xb0\xcf'
p2466
tp2467
Rp2468
sg14
S"Joseph's College Cosmetology"
p2469
sg16
F-99.082082
sg17
g2321
sg19
g71
sg21
S'NE'
p2470
sg23
S'2213 Central Avenue'
p2471
sg25
F40.7093114
sg26
S'Institutional'
p2472
sba(igenerator
School
p2473
(dp2474
g3
S'www.ecollege.edu'
p2475
sg5
S'Springdale'
p2476
sg7
S'ecollege.edu'
p2477
sg9
g10
(S'\x07\xde\x0c\x0b\x02+\x1d\x01\x1d\xf0'
p2478
tp2479
Rp2480
sg14
S'Ecclesia College'
p2481
sg16
F-94.2366925
sg17
g2321
sg19
S'479-248-7236'
p2482
sg21
S'AR'
p2483
sg23
S'9653 Nations Drive'
p2484
sg25
F36.2141186
sg26
S'Institutional'
p2485
sba(igenerator
School
p2486
(dp2487
g3
S'www.grm.org'
p2488
sg5
S'Washington'
p2489
sg7
S'grm.org'
p2490
sg9
g10
(S'\x07\xde\x0c\x0b\x02+\x1f\x02\xe85'
p2491
tp2492
Rp2493
sg14
S'School of Tomorrow'
p2494
sg16
F-77.01896610370193
sg17
g2296
sg19
g71
sg21
S'DC'
p2495
sg23
S'810 5th Street, NW'
p2496
sg25
F38.90032029234868
sg26
S'Institutional'
p2497
sba(igenerator
School
p2498
(dp2499
g3
g71
sg5
S'Amarillo'
p2500
sg7
Nsg9
g10
(S'\x07\xde\x0c\x0b\x02+!\x04D<'
p2501
tp2502
Rp2503
sg14
S'Wade Gordon Hairdressing Academy'
p2504
sg16
F-101.92371116843492
sg17
g2296
sg19
g71
sg21
S'TX'
p2505
sg23
S'7701 West Interstate 40, Suite 550'
p2506
sg25
F35.18637311972475
sg26
S'Institutional'
p2507
sba(igenerator
School
p2508
(dp2509
g3
S'www.studymassage.com'
p2510
sg5
S'Turnersville'
p2511
sg7
S'studymassage.com'
p2512
sg9
g10
(S'\x07\xde\x0c\x0b\x02+#\x0c\xb0}'
p2513
tp2514
Rp2515
sg14
S'National Massage Therapy Institute - Turnersville'
p2516
sg16
F-75.0564857704012
sg17
g2296
sg19
S'856-227-1754'
p2517
sg21
S'NJ'
p2518
sg23
S'108-L Greentree Rd. & Black Horse Pike'
p2519
sg25
F39.77277284399264
sg26
S'Institutional'
p2520
sba(igenerator
School
p2521
(dp2522
g3
g71
sg5
S'McClean'
p2523
sg7
Nsg9
g10
(S'\x07\xde\x0c\x0b\x02+%\x02\xfd\xf1'
p2524
tp2525
Rp2526
sg14
S'Comprehensive Lanugaue Center, Inc.'
p2527
sg16
F-77.22982791442593
sg17
g2296
sg19
S'703-307-3040'
p2528
sg21
S'VA'
p2529
sg23
S'8251 Greensboro Drive'
p2530
sg25
F38.9224037738162
sg26
S'Institutional'
p2531
sba(igenerator
School
p2532
(dp2533
g3
S'www.nic.edu'
p2534
sg5
S"Coeur D'alene"
p2535
sg7
S'nic.edu'
p2536
sg9
g10
(S'\x07\xde\x0c\x0b\x02+&\x04h\xc3'
p2537
tp2538
Rp2539
sg14
S'North Idaho College'
p2540
sg16
F-116.7912259
sg17
g2321
sg19
S'208-769-3300'
p2541
sg21
S'ID'
p2542
sg23
S'1000 W Garden Avenue'
p2543
sg25
F47.677703
sg26
S'Institutional'
p2544
sba(igenerator
School
p2545
(dp2546
g3
S'arthursbeautycollege.com'
p2547
sg5
S'Jacksonville'
p2548
sg7
S'arthursbeautycollege.com'
p2549
sg9
g10
(S"\x07\xde\x0c\x0b\x02+'\x04\x03\xaf"
p2550
tp2551
Rp2552
sg14
S"Arthur's Beauty College, Inc. - Jacksonville"
p2553
sg16
F-92.1185039
sg17
g2321
sg19
S'501-982-8987'
p2554
sg21
S'AR'
p2555
sg23
S'2600 John Harden Drive'
p2556
sg25
F34.876003
sg26
S'Institutional'
p2557
sba(igenerator
School
p2558
(dp2559
g3
S'www.iastate.edu'
p2560
sg5
S'Ames'
p2561
sg7
S'iastate.edu'
p2562
sg9
g10
(S'\x07\xde\x0c\x0b\x02+)\x04\x0c\x89'
p2563
tp2564
Rp2565
sg14
S'Iowa State University'
p2566
sg16
F-93.64787483345606
sg17
g2296
sg19
S'515-294-5836'
p2567
sg21
S'IA'
p2568
sg23
S'1750 Beardshear Hall'
p2569
sg25
F42.02688305510998
sg26
S'Institutional'
p2570
sba(igenerator
School
p2571
(dp2572
g3
g71
sg5
S'Manhasset'
p2573
sg7
Nsg9
g10
(S'\x07\xde\x0c\x0b\x02++\x04\x88\xb8'
p2574
tp2575
Rp2576
sg14
S'North Shore University Hospital Graduate School of Molecular Medicine'
p2577
sg16
F-73.70295628390454
sg17
g2296
sg19
S'516-562-1001'
p2578
sg21
S'NY'
p2579
sg23
S'350 Community Drive'
p2580
sg25
F40.777177924622606
sg26
S'Institutional'
p2581
sba(igenerator
School
p2582
(dp2583
g3
S'www.olivetcollege.edu'
p2584
sg5
S'Olivet'
p2585
sg7
S'olivetcollege.edu'
p2586
sg9
g10
(S'\x07\xde\x0c\x0b\x02+-\x061V'
p2587
tp2588
Rp2589
sg14
S'Olivet College'
p2590
sg16
F-84.92431149268049
sg17
g2296
sg19
S'269-749-7000'
p2591
sg21
S'MI'
p2592
sg23
S'320 South Main Street'
p2593
sg25
F42.44348177386587
sg26
S'Institutional'
p2594
sba(igenerator
School
p2595
(dp2596
g3
S'www.upt.pitt.edu'
p2597
sg5
S'Titusville'
p2598
sg7
S'pitt.edu'
p2599
sg9
g10
(S'\x07\xde\x0c\x0b\x02+5\x0e\x97\xa6'
p2600
tp2601
Rp2602
sg14
S'University of Pittsburgh - Titusville'
p2603
sg16
F-79.6673498
sg17
g2321
sg19
S'814-827-4400'
p2604
sg21
S'PA'
p2605
sg23
S'504 E Main St'
p2606
sg25
F41.6283056
sg26
S'Institutional'
p2607
sba(igenerator
School
p2608
(dp2609
g3
g71
sg5
S'Irving'
p2610
sg7
Nsg9
g10
(S'\x07\xde\x0c\x0b\x02+8\x00\xda\xe6'
p2611
tp2612
Rp2613
sg14
S'Advanced Beauty College'
p2614
sg16
F-96.99205910084606
sg17
g2296
sg19
g71
sg21
S'TX'
p2615
sg23
S'3959 Beltline Road'
p2616
sg25
F32.86008401906332
sg26
S'Institutional'
p2617
sba(igenerator
School
p2618
(dp2619
g3
S'www.quincycollege.edu'
p2620
sg5
S'Quincy'
p2621
sg7
S'quincycollege.edu'
p2622
sg9
g10
(S'\x07\xde\x0c\x0b\x02+8\x0e\xcd\xe1'
p2623
tp2624
Rp2625
sg14
S'Quincy College'
p2626
sg16
F-71.00312
sg17
g2321
sg19
S'800-698-1700'
p2627
sg21
S'MA'
p2628
sg23
S'1250 Hancock Street'
p2629
sg25
F42.251602
sg26
S'Institutional'
p2630
sba(igenerator
School
p2631
(dp2632
g3
g71
sg5
S'Worthington'
p2633
sg7
Nsg9
g10
(S'\x07\xde\x0c\x0b\x02+9\r\xcd\x00'
p2634
tp2635
Rp2636
sg14
S'Avalon School of Cosmetology'
p2637
sg16
F-95.6029411
sg17
g2321
sg19
g71
sg21
S'MN'
p2638
sg23
S'1428 North McMillan Street'
p2639
sg25
F43.6336934
sg26
S'Institutional'
p2640
sba(igenerator
School
p2641
(dp2642
g3
S'www.gratz.edu'
p2643
sg5
S'Melrose Park'
p2644
sg7
S'gratz.edu'
p2645
sg9
g10
(S'\x07\xde\x0c\x0b\x02+;\x01\x93o'
p2646
tp2647
Rp2648
sg14
S'Gratz College'
p2649
sg16
F-75.1332306
sg17
g2321
sg19
S'215-635-7300-100'
p2650
sg21
S'PA'
p2651
sg23
S'7605 Old York Rd'
p2652
sg25
F40.0670555
sg26
S'Institutional'
p2653
sba(igenerator
School
p2654
(dp2655
g3
S'www.lebanoncollege.edu'
p2656
sg5
S'Lebanon'
p2657
sg7
S'lebanoncollege.edu'
p2658
sg9
g10
(S'\x07\xde\x0c\x0b\x02,\x00\x008\xc8'
p2659
tp2660
Rp2661
sg14
S'Lebanon College'
p2662
sg16
F-72.2500235
sg17
g2321
sg19
S'603-448-2445'
p2663
sg21
S'NH'
p2664
sg23
S'15 Hanover Street'
p2665
sg25
F43.6475583
sg26
S'Institutional'
p2666
sba(igenerator
School
p2667
(dp2668
g3
S'www.continentalschbeauty.com'
p2669
sg5
S'Olean'
p2670
sg7
S'continentalschbeauty.com'
p2671
sg9
g10
(S'\x07\xde\x0c\x0b\x02,\x01\x01$\xa8'
p2672
tp2673
Rp2674
sg14
S'Continental School of Beauty Culture - Olean'
p2675
sg16
F-78.4278926
sg17
g2321
sg19
S'716-372-5095'
p2676
sg21
S'NY'
p2677
sg23
S'517 North Barry Street'
p2678
sg25
F42.0791447
sg26
S'Institutional'
p2679
sba(igenerator
School
p2680
(dp2681
g3
g71
sg5
S'Staten Island'
p2682
sg7
Nsg9
g10
(S'\x07\xde\x0c\x0b\x02,\x02\x03\xe1\x11'
p2683
tp2684
Rp2685
sg14
S'Willsey Institute'
p2686
sg16
F-74.0775524224081
sg17
g2321
sg19
S'718-442-5706'
p2687
sg21
S'NY'
p2688
sg23
S'120 Stuyvesant Pl'
p2689
sg25
F40.6432615
sg26
S'Institutional'
p2690
sba(igenerator
School
p2691
(dp2692
g3
g71
sg5
S'Memphis'
p2693
sg7
Nsg9
g10
(S'\x07\xde\x0c\x0b\x02,\x04\x06!)'
p2694
tp2695
Rp2696
sg14
S'Southern Institute of Cosmetology'
p2697
sg16
F-89.9057598115653
sg17
g2296
sg19
S'901-363-3553'
p2698
sg21
S'TN'
p2699
sg23
S'3099 S Perkins'
p2700
sg25
F35.06367383308202
sg26
S'Institutional'
p2701
sba(igenerator
School
p2702
(dp2703
g3
g71
sg5
S'Saint George'
p2704
sg7
Nsg9
g10
(S'\x07\xde\x0c\x0b\x02,\x05\x06\x02S'
p2705
tp2706
Rp2707
sg14
S'Evans Hairstyling College - Saint George'
p2708
sg16
F-113.5684961
sg17
g2321
sg19
S'801-673-6128'
p2709
sg21
S'UT'
p2710
sg23
S'955 E Tabernacle'
p2711
sg25
F37.1081386
sg26
S'Institutional'
p2712
sba(igenerator
School
p2713
(dp2714
g3
S'startechinstitute.com'
p2715
sg5
S'Newark'
p2716
sg7
S'startechinstitute.com'
p2717
sg9
g10
(S'\x07\xde\x0c\x0b\x02,\x07\x0b\xe9,'
p2718
tp2719
Rp2720
sg14
S'Star Career Academy - Newark'
p2721
sg16
F-74.1742099914971
sg17
g2296
sg19
S'732-548-6012'
p2722
sg21
S'NJ'
p2723
sg23
S'550 Broad Street 3rd Floor'
p2724
sg25
F40.73197334009865
sg26
S'Institutional'
p2725
sba(igenerator
School
p2726
(dp2727
g3
S'www.sandiegomesacollege.net/'
p2728
sg5
S'San Diego'
p2729
sg7
S'sandiegomesacollege.net'
p2730
sg9
g10
(S'\x07\xde\x0c\x0b\x02,\t\x0e4\xf9'
p2731
tp2732
Rp2733
sg14
S'San Diego Mesa College'
p2734
sg16
F-117.16420455209771
sg17
g2296
sg19
S'619-388-2604'
p2735
sg21
S'CA'
p2736
sg23
S'7250 Mesa College Dr'
p2737
sg25
F32.80334058949768
sg26
S'Institutional'
p2738
sba(igenerator
School
p2739
(dp2740
g3
g71
sg5
S'San Francisco'
p2741
sg7
Nsg9
g10
(S'\x07\xde\x0c\x0b\x02,\x0b\x03y_'
p2742
tp2743
Rp2744
sg14
S'NCP College of Nursing - San Francisco'
p2745
sg16
F-122.4603601
sg17
g2321
sg19
S'650-871-0701'
p2746
sg21
S'CA'
p2747
sg23
S'257 Longford Drive'
p2748
sg25
F37.6661113
sg26
S'Institutional'
p2749
sba(igenerator
School
p2750
(dp2751
g3
g71
sg5
S'Elmsford'
p2752
sg7
Nsg9
g10
(S'\x07\xde\x0c\x0b\x02,\r\x03\xc8\xcb'
p2753
tp2754
Rp2755
sg14
S'Southern Westchester BOCES'
p2756
sg16
F-73.81075887642021
sg17
g2296
sg19
g71
sg21
S'NY'
p2757
sg23
S'85 Executive Boulevard'
p2758
sg25
F41.07006695043049
sg26
S'Institutional'
p2759
sba(igenerator
School
p2760
(dp2761
g3
g71
sg5
S'Bethesda'
p2762
sg7
Nsg9
g10
(S'\x07\xde\x0c\x0b\x02,\x0f\x00w\xc7'
p2763
tp2764
Rp2765
sg14
S'The SANS Technology Institute'
p2766
sg16
F-77.09681426276723
sg17
g2296
sg19
g71
sg21
S'MD'
p2767
sg23
S'8120 Woodmont Ave. Ste. 205'
p2768
sg25
F38.99151302810486
sg26
S'Institutional'
p2769
sba(igenerator
School
p2770
(dp2771
g3
g71
sg5
S'Vega Baja'
p2772
sg7
Nsg9
g10
(S'\x07\xde\x0c\x0b\x02,\x10\n\n\xb4'
p2773
tp2774
Rp2775
sg14
S'Globelle Technical Institute'
p2776
sg16
F-66.38754999999964
sg17
g2296
sg19
S'787-858-0236'
p2777
sg21
S'PR'
p2778
sg23
S'Marginal 114 Monte Carlo'
p2779
sg25
F18.446009992000427
sg26
S'Institutional'
p2780
sba(igenerator
School
p2781
(dp2782
g3
S'www.antonelli.edu'
p2783
sg5
S'Erdenheim'
p2784
sg7
S'antonelli.edu'
p2785
sg9
g10
(S'\x07\xde\x0c\x0b\x02,\x11\x0b\x7f\xc2'
p2786
tp2787
Rp2788
sg14
S'Antonelli Institute'
p2789
sg16
F-75.2032515
sg17
g2321
sg19
S'215-836-2222'
p2790
sg21
S'PA'
p2791
sg23
S'300 Montgomery Ave'
p2792
sg25
F40.0846223
sg26
S'Institutional'
p2793
sba(igenerator
School
p2794
(dp2795
g3
g71
sg5
S'Sharon'
p2796
sg7
Nsg9
g10
(S'\x07\xde\x0c\x0b\x02,\x13\x0b\xa4\x9b'
p2797
tp2798
Rp2799
sg14
S'Precision Manufacturing Institute - Shenango'
p2800
sg16
F-80.50657286424547
sg17
g2296
sg19
S'724-342-4504'
p2801
sg21
S'PA'
p2802
sg23
S'892 Dock Street'
p2803
sg25
F41.22100319294407
sg26
S'Institutional'
p2804
sba(igenerator
School
p2805
(dp2806
g3
S'BeautyCareers.com'
p2807
sg5
S'Anaheim'
p2808
sg7
S'beautycareers.com'
p2809
sg9
g10
(S'\x07\xde\x0c\x0b\x02,\x15\x0b\xf4u'
p2810
tp2811
Rp2812
sg14
S'Career Academy of Beauty'
p2813
sg16
F-117.94162824324815
sg17
g2296
sg19
S'714-776-8400-103'
p2814
sg21
S'CA'
p2815
sg23
S'663 N Euclid'
p2816
sg25
F33.84087355746976
sg26
S'Institutional'
p2817
sba(igenerator
School
p2818
(dp2819
g3
S'www.shu.edu'
p2820
sg5
S'South Orange'
p2821
sg7
S'shu.edu'
p2822
sg9
g10
(S'\x07\xde\x0c\x0b\x02,\x16\x0e@\xb8'
p2823
tp2824
Rp2825
sg14
S'Seton Hall University'
p2826
sg16
F-74.2586464
sg17
g2321
sg19
S'973-761-9000'
p2827
sg21
S'NJ'
p2828
sg23
S'400 S Orange Ave'
p2829
sg25
F40.7459363
sg26
S'Institutional'
p2830
sba(igenerator
School
p2831
(dp2832
g3
g71
sg5
S'Norfolk'
p2833
sg7
Nsg9
g10
(S'\x07\xde\x0c\x0b\x02,\x19\x01j8'
p2834
tp2835
Rp2836
sg14
S'Center for Antiterrorism and Navy Security Forces'
p2837
sg16
F-76.2850583715458
sg17
g2296
sg19
g71
sg21
S'VA'
p2838
sg23
S'1575 Gator Boulevard, Suite 226'
p2839
sg25
F36.84682388431588
sg26
S'Institutional'
p2840
sba(igenerator
School
p2841
(dp2842
g3
S'www.collegeofartadvertising.com'
p2843
sg5
S'Cincinnati'
p2844
sg7
S'collegeofartadvertising.com'
p2845
sg9
g10
(S'\x07\xde\x0c\x0b\x02,\x1b\x05E\xba'
p2846
tp2847
Rp2848
sg14
S'College of Art Advertising'
p2849
sg16
F-84.62274820176731
sg17
g2296
sg19
S'513-574-1010'
p2850
sg21
S'OH'
p2851
sg23
S'4343 Bridgetown Rd'
p2852
sg25
F39.157983182079306
sg26
S'Institutional'
p2853
sba(igenerator
School
p2854
(dp2855
g3
S'www.villa.edu'
p2856
sg5
S'Buffalo'
p2857
sg7
S'villa.edu'
p2858
sg9
g10
(S'\x07\xde\x0c\x0b\x02,\x1d\x05\xa0B'
p2859
tp2860
Rp2861
sg14
S'Villa Maria College Buffalo'
p2862
sg16
F-78.79603931626065
sg17
g2296
sg19
S'716-896-0700'
p2863
sg21
S'NY'
p2864
sg23
S'240 Pine Ridge Rd'
p2865
sg25
F42.912476846730215
sg26
S'Institutional'
p2866
sba(igenerator
School
p2867
(dp2868
g3
S'www.itu.edu'
p2869
sg5
S'San Jose'
p2870
sg7
S'itu.edu'
p2871
sg9
g10
(S'\x07\xde\x0c\x0b\x02,\x1f\x06C\xf4'
p2872
tp2873
Rp2874
sg14
S'International Technological University'
p2875
sg16
F-121.89543983917656
sg17
g2296
sg19
S'408-556-9010'
p2876
sg21
S'CA'
p2877
sg23
S'355 W San Fernando Street'
p2878
sg25
F37.33139641921048
sg26
S'Institutional'
p2879
sba(igenerator
School
p2880
(dp2881
g3
S'www.ferrum.edu'
p2882
sg5
S'Ferrum'
p2883
sg7
S'ferrum.edu'
p2884
sg9
g10
(S'\x07\xde\x0c\x0b\x02, \x02\xd6_'
p2885
tp2886
Rp2887
sg14
S'Ferrum College'
p2888
sg16
F-80.0308409
sg17
g2321
sg19
S'540-365-2121'
p2889
sg21
S'VA'
p2890
sg23
S'215 Ferrum Mountain Road'
p2891
sg25
F36.938862
sg26
S'Institutional'
p2892
sba(igenerator
School
p2893
(dp2894
g3
g71
sg5
S'Mendota Heights'
p2895
sg7
Nsg9
g10
(S'\x07\xde\x0c\x0b\x02,!\x04\x02<'
p2896
tp2897
Rp2898
sg14
S'Sanford-Brown College'
p2899
sg16
F-93.1435447
sg17
g2321
sg19
g71
sg21
S'MN'
p2900
sg23
S'1345 Mendota Heights Road'
p2901
sg25
F44.865548
sg26
S'Institutional'
p2902
sba(igenerator
School
p2903
(dp2904
g3
S'www.agnesscott.edu'
p2905
sg5
S'Decatur'
p2906
sg7
S'agnesscott.edu'
p2907
sg9
g10
(S'\x07\xde\x0c\x0b\x02,"\x03\x92\xed'
p2908
tp2909
Rp2910
sg14
S'Agnes Scott College'
p2911
sg16
F-97.5831359
sg17
g2321
sg19
S'404-471-6000'
p2912
sg21
S'GA'
p2913
sg23
S'141 E. College Ave'
p2914
sg25
F33.229504
sg26
S'Institutional'
p2915
sba(igenerator
School
p2916
(dp2917
g3
S'WWW.MTI.edu'
p2918
sg5
S'Houston'
p2919
sg7
S'mti.edu'
p2920
sg9
g10
(S'\x07\xde\x0c\x0b\x02,#\x06\x8c\x03'
p2921
tp2922
Rp2923
sg14
S'MTI College of Business and Technology'
p2924
sg16
F-95.5088678
sg17
g2321
sg19
S'713-974-7181-120'
p2925
sg21
S'TX'
p2926
sg23
S'7277 Regency Sq Blvd'
p2927
sg25
F29.715507
sg26
S'Institutional'
p2928
sba(igenerator
School
p2929
(dp2930
g3
S'www.dorseyschools.com'
p2931
sg5
S'Southgate'
p2932
sg7
S'dorseyschools.com'
p2933
sg9
g10
(S'\x07\xde\x0c\x0b\x02,%\x06\x8d\xfe'
p2934
tp2935
Rp2936
sg14
S'Dorsey School of Business'
p2937
sg16
F-83.21564963442228
sg17
g2296
sg19
S'734-285-5400'
p2938
sg21
S'MI'
p2939
sg23
S'15755 Northline Road'
p2940
sg25
F42.213251500757224
sg26
S'Institutional'
p2941
sba(igenerator
School
p2942
(dp2943
g3
S'www.MendocinoCollege.edu'
p2944
sg5
S'Ukiah'
p2945
sg7
S'mendocinocollege.edu'
p2946
sg9
g10
(S"\x07\xde\x0c\x0b\x02,'\x06\x8c\xbb"
p2947
tp2948
Rp2949
sg14
S'Mendocino College'
p2950
sg16
F-123.21961429216515
sg17
g2296
sg19
S'707-468-3000'
p2951
sg21
S'CA'
p2952
sg23
S'1000 Hensley Creek Road'
p2953
sg25
F39.185578088559055
sg26
S'Institutional'
p2954
sba(igenerator
School
p2955
(dp2956
g3
S'www.mildred-elley.edu'
p2957
sg5
S'Albany'
p2958
sg7
S'mildred-elley.edu'
p2959
sg9
g10
(S'\x07\xde\x0c\x0b\x02,(\t\xf0\xcc'
p2960
tp2961
Rp2962
sg14
S'Mildred Elley'
p2963
sg16
F-73.7885886734204
sg17
g2321
sg19
S'518-786-0855-221'
p2964
sg21
S'NY'
p2965
sg23
S'855 Central Avenue'
p2966
sg25
F42.6807893
sg26
S'Institutional'
p2967
sba(igenerator
School
p2968
(dp2969
g3
S'mbbc.edu'
p2970
sg5
S'Watertown'
p2971
sg7
S'mbbc.edu'
p2972
sg9
g10
(S'\x07\xde\x0c\x0b\x02,)\rlU'
p2973
tp2974
Rp2975
sg14
S'Maranatha Baptist Bible College'
p2976
sg16
F-88.7272867
sg17
g2321
sg19
S'920-261-9300'
p2977
sg21
S'WI'
p2978
sg23
S'745 W. Main St.'
p2979
sg25
F43.1946406
sg26
S'Institutional'
p2980
sba(igenerator
School
p2981
(dp2982
g3
S'www.empire.edu'
p2983
sg5
S'Baltimore'
p2984
sg7
S'empire.edu'
p2985
sg9
g10
(S'\x07\xde\x0c\x0b\x02,+\r_>'
p2986
tp2987
Rp2988
sg14
S'Empire Beauty School - Baltimore'
p2989
sg16
F-76.69253401133477
sg17
g2296
sg19
S'800-223-3271-2414'
p2990
sg21
S'MD'
p2991
sg23
S'5633 Reisterstown Road'
p2992
sg25
F39.34930381741833
sg26
S'Institutional'
p2993
sba(igenerator
School
p2994
(dp2995
g3
S'www.humanitiescenter.com'
p2996
sg5
S'Pinellas Park'
p2997
sg7
S'humanitiescenter.com'
p2998
sg9
g10
(S'\x07\xde\x0c\x0b\x02,-\x0e\x1b7'
p2999
tp3000
Rp3001
sg14
S'Cortiva Institute - Humanities Center School of Massage'
p3002
sg16
F-82.68867653549296
sg17
g2296
sg19
S'727-541-5200-10'
p3003
sg21
S'FL'
p3004
sg23
S'4045 Park Blvd'
p3005
sg25
F27.83934806476242
sg26
S'Institutional'
p3006
sba(igenerator
School
p3007
(dp3008
g3
g71
sg5
S'Austin'
p3009
sg7
Nsg9
g10
(S'\x07\xde\x0c\x0b\x02,0\x03\x19\xe4'
p3010
tp3011
Rp3012
sg14
S'Paul Mitchell the School Austin'
p3013
sg16
F-97.7429865818645
sg17
g2296
sg19
g71
sg21
S'TX'
p3014
sg23
S'9503 Research Boulevard, Building 3, Suite 310'
p3015
sg25
F30.267593273411933
sg26
S'Institutional'
p3016
sba(igenerator
School
p3017
(dp3018
g3
g71
sg5
S'Norfolk'
p3019
sg7
Nsg9
g10
(S'\x07\xde\x0c\x0b\x02,1\x04\x00^'
p3020
tp3021
Rp3022
sg14
S'Ghent Beauty Academy'
p3023
sg16
F-76.2593699
sg17
g2321
sg19
S'757-855-2103'
p3024
sg21
S'VA'
p3025
sg23
S'2811 LaFayette Blvd.'
p3026
sg25
F36.876646
sg26
S'Institutional'
p3027
sba(igenerator
School
p3028
(dp3029
g3
g71
sg5
S'Port Huron'
p3030
sg7
Nsg9
g10
(S'\x07\xde\x0c\x0b\x02,3\x04\x1bi'
p3031
tp3032
Rp3033
sg14
S'Paul Mitchell The School Great Lakes'
p3034
sg16
F-82.45906830815511
sg17
g2296
sg19
g71
sg21
S'MI'
p3035
sg23
S'2950 Lapeer Road'
p3036
sg25
F42.978396585235316
sg26
S'Institutional'
p3037
sba(igenerator
School
p3038
(dp3039
g3
S'www.whiteville.tec.tn.us'
p3040
sg5
S'Whiteville'
p3041
sg7
S'tec.tn.us'
p3042
sg9
g10
(S'\x07\xde\x0c\x0b\x02,5\x04\xe9D'
p3043
tp3044
Rp3045
sg14
S'Tennessee College of Applied Technology - Whiteville'
p3046
sg16
F-89.16179842695504
sg17
g2296
sg19
S'731-254-8521'
p3047
sg21
S'TN'
p3048
sg23
S'1685 Highway 64'
p3049
sg25
F35.31825006518943
sg26
S'Institutional'
p3050
sba(igenerator
School
p3051
(dp3052
g3
S'www.octech.edu'
p3053
sg5
S'Orangeburg'
p3054
sg7
S'octech.edu'
p3055
sg9
g10
(S'\x07\xde\x0c\x0b\x02,6\x04\xb4\x0e'
p3056
tp3057
Rp3058
sg14
S'Orangeburg Calhoun Technical College'
p3059
sg16
F-80.8611569
sg17
g2321
sg19
S'803-536-0311'
p3060
sg21
S'SC'
p3061
sg23
S'3250 Saint Matthews Rd'
p3062
sg25
F33.509919
sg26
S'Institutional'
p3063
sba(igenerator
School
p3064
(dp3065
g3
g71
sg5
S'New Cumberland'
p3066
sg7
Nsg9
g10
(S'\x07\xde\x0c\x0b\x02,7\x0b\x17H'
p3067
tp3068
Rp3069
sg14
S'John D. Rockefeller IV Career Center'
p3070
sg16
F-80.6206211089762
sg17
g2296
sg19
S'304-564-3337'
p3071
sg21
S'WV'
p3072
sg23
S'95 Rockyside Road'
p3073
sg25
F40.53134293822711
sg26
S'Institutional'
p3074
sba(igenerator
School
p3075
(dp3076
g3
S'www.washcoll.edu'
p3077
sg5
S'Chestertown'
p3078
sg7
S'washcoll.edu'
p3079
sg9
g10
(S'\x07\xde\x0c\x0b\x02,8\x07$\xc9'
p3080
tp3081
Rp3082
sg14
S'Washington College'
p3083
sg16
F-76.0706639
sg17
g2321
sg19
S'410-778-2800-7299'
p3084
sg21
S'MD'
p3085
sg23
S'300 Washington Ave'
p3086
sg25
F39.224979
sg26
S'Institutional'
p3087
sba(igenerator
School
p3088
(dp3089
g3
S'www.newlife-academy.us'
p3090
sg5
S'East Liverpool'
p3091
sg7
S'newlife-academy.us'
p3092
sg9
g10
(S'\x07\xde\x0c\x0b\x02,:\x0b\xd8\xa4'
p3093
tp3094
Rp3095
sg14
S'New Life Academy of Information Technology'
p3096
sg16
F-80.58025898156598
sg17
g2296
sg19
S'330-386-0445'
p3097
sg21
S'OH'
p3098
sg23
S'114 West Fifth Street'
p3099
sg25
F40.61938418243517
sg26
S'Institutional'
p3100
sba(igenerator
School
p3101
(dp3102
g3
S'www.uscart.com'
p3103
sg5
S'Springfield'
p3104
sg7
S'uscart.com'
p3105
sg9
g10
(S'\x07\xde\x0c\x0b\x02,;\x07>\x13'
p3106
tp3107
Rp3108
sg14
S'University of Spa & Massage Therapy'
p3109
sg16
F-89.7098045
sg17
g2321
sg19
S'217-753-8990'
p3110
sg21
S'IL'
p3111
sg23
S'2913 W. White Oaks Dr.'
p3112
sg25
F39.7632391
sg26
S'Institutional'
p3113
sba(igenerator
School
p3114
(dp3115
g3
g71
sg5
S'South Burlington'
p3116
sg7
Nsg9
g10
(S'\x07\xde\x0c\x0b\x02-\x00\x02\xa7\xd4'
p3117
tp3118
Rp3119
sg14
S"O'Brien's Aveda Institute"
p3120
sg16
F-73.2101058
sg17
g2321
sg19
S'802-658-9591-12'
p3121
sg21
S'VT'
p3122
sg23
S'1475 Shelburne Rd'
p3123
sg25
F44.439859
sg26
S'Institutional'
p3124
sba(igenerator
School
p3125
(dp3126
g3
S'www.chestercollege.edu'
p3127
sg5
S'Chester'
p3128
sg7
S'chestercollege.edu'
p3129
sg9
g10
(S'\x07\xde\x0c\x0b\x02-\x01\x01 o'
p3130
tp3131
Rp3132
sg14
S'Chester College of New England'
p3133
sg16
F-71.259403819084
sg17
g2321
sg19
S'603-887-4401'
p3134
sg21
S'NH'
p3135
sg23
S'40 Chester St'
p3136
sg25
F42.95939685
sg26
S'Institutional'
p3137
sba(igenerator
School
p3138
(dp3139
g3
S'www.iia.edu'
p3140
sg5
S'Phoenix'
p3141
sg7
S'iia.edu'
p3142
sg9
g10
(S'\x07\xde\x0c\x0b\x02-\x03\x04\x15\xe4'
p3143
tp3144
Rp3145
sg14
S'International Institute of the Americas'
p3146
sg16
F-112.2205921694923
sg17
g2296
sg19
S'623-849-8208'
p3147
sg21
S'AZ'
p3148
sg23
S'4136 N 75th Ave Ste 211'
p3149
sg25
F33.49621295816257
sg26
S'Institutional'
p3150
sba(igenerator
School
p3151
(dp3152
g3
g71
sg5
S'Laredo'
p3153
sg7
Nsg9
g10
(S'\x07\xde\x0c\x0b\x02-\x04\x06\xf1w'
p3154
tp3155
Rp3156
sg14
S'Laredo CHI Academy Beauty School'
p3157
sg16
F-99.4677638
sg17
g2321
sg19
g71
sg21
S'TX'
p3158
sg23
S'1710 Peaceful Meadows Court'
p3159
sg25
F27.5751137
sg26
S'Institutional'
p3160
sba(igenerator
School
p3161
(dp3162
g3
S'www.molloy.edu'
p3163
sg5
S'Rockville Centre'
p3164
sg7
S'molloy.edu'
p3165
sg9
g10
(S'\x07\xde\x0c\x0b\x02-\x05\x0c\xdf\x12'
p3166
tp3167
Rp3168
sg14
S'Molloy College'
p3169
sg16
F-73.6358849
sg17
g2321
sg19
S'516-678-5000'
p3170
sg21
S'NY'
p3171
sg23
S'1000 Hempstead Ave'
p3172
sg25
F40.67367
sg26
S'Institutional'
p3173
sba(igenerator
School
p3174
(dp3175
g3
S'www.swainsborotech.edu'
p3176
sg5
S'Swainsboro'
p3177
sg7
S'swainsborotech.edu'
p3178
sg9
g10
(S'\x07\xde\x0c\x0b\x02-\x07\x00\x0e\x83'
p3179
tp3180
Rp3181
sg14
S'Swainsboro Technical College'
p3182
sg16
F-82.3576689
sg17
g2321
sg19
S'478-289-2200'
p3183
sg21
S'GA'
p3184
sg23
S'346 Kite Rd'
p3185
sg25
F32.603515
sg26
S'Institutional'
p3186
sba(igenerator
School
p3187
(dp3188
g3
S'www.tesm.edu'
p3189
sg5
S'Ambridge'
p3190
sg7
S'tesm.edu'
p3191
sg9
g10
(S'\x07\xde\x0c\x0b\x02-\t\x01.\x8c'
p3192
tp3193
Rp3194
sg14
S'Trinity Episcopal School for Ministry'
p3195
sg16
F-80.23033985739772
sg17
g2296
sg19
S'724-266-3838-200'
p3196
sg21
S'PA'
p3197
sg23
S'311 Eleventh St'
p3198
sg25
F40.59309017227474
sg26
S'Institutional'
p3199
sba(igenerator
School
p3200
(dp3201
g3
S'www.recordingcareer.com'
p3202
sg5
S'Hollywood'
p3203
sg7
S'recordingcareer.com'
p3204
sg9
g10
(S'\x07\xde\x0c\x0b\x02-\x0b\x05\xab\xf1'
p3205
tp3206
Rp3207
sg14
S'Los Angeles Recording School'
p3208
sg16
F-118.33641810830835
sg17
g2296
sg19
S'323-464-5200'
p3209
sg21
S'CA'
p3210
sg23
S'6690 Sunset Boulevard'
p3211
sg25
F34.097942696799066
sg26
S'Institutional'
p3212
sba(igenerator
School
p3213
(dp3214
g3
g71
sg5
S'Chillicothe'
p3215
sg7
Nsg9
g10
(S'\x07\xde\x0c\x0b\x02-\r\x06\x0c\xb1'
p3216
tp3217
Rp3218
sg14
S'Pickaway-Ross Career and Technology Center'
p3219
sg16
F-82.9593706358454
sg17
g2296
sg19
S'740-642-1200-211'
p3220
sg21
S'OH'
p3221
sg23
S'895 Crouse Chapel Rd'
p3222
sg25
F39.43659685895898
sg26
S'Institutional'
p3223
sba(igenerator
School
p3224
(dp3225
g3
S'www.alliant.edu'
p3226
sg5
S'San Diego'
p3227
sg7
S'alliant.edu'
p3228
sg9
g10
(S'\x07\xde\x0c\x0b\x02-\x0f\x06x\x9c'
p3229
tp3230
Rp3231
sg14
S'Alliant International University'
p3232
sg16
F-117.09879777249853
sg17
g2296
sg19
S'858-271-4300'
p3233
sg21
S'CA'
p3234
sg23
S'10455 Pomerado Road'
p3235
sg25
F32.899550736478375
sg26
S'Institutional'
p3236
sba(igenerator
School
p3237
(dp3238
g3
g71
sg5
S'Downers Grove'
p3239
sg7
Nsg9
g10
(S'\x07\xde\x0c\x0b\x02-\x10\x01Z\xa0'
p3240
tp3241
Rp3242
sg14
S'Becker Professional Development Corporation'
p3243
sg16
F-88.0075736079897
sg17
g2321
sg19
S'630-353-1489'
p3244
sg21
S'IL'
p3245
sg23
S'3005 Highland Parkway'
p3246
sg25
F41.8333193
sg26
S'Institutional'
p3247
sba(igenerator
School
p3248
(dp3249
g3
S'WWW.CLCMN.EDU'
p3250
sg5
S'Brainerd'
p3251
sg7
S'clcmn.edu'
p3252
sg9
g10
(S'\x07\xde\x0c\x0b\x02-\x11\x00\x00|'
p3253
tp3254
Rp3255
sg14
S'Central Lakes College'
p3256
sg16
F-94.2155013
sg17
g2321
sg19
S'218-855-8000'
p3257
sg21
S'MN'
p3258
sg23
S'501 West College Drive'
p3259
sg25
F46.3474656
sg26
S'Institutional'
p3260
sba(igenerator
School
p3261
(dp3262
g3
S'www.alliedcareercenter.com'
p3263
sg5
S'Carrollton'
p3264
sg7
S'alliedcareercenter.com'
p3265
sg9
g10
(S'\x07\xde\x0c\x0b\x02-\x13\x01\xfa4'
p3266
tp3267
Rp3268
sg14
S'Allied Career Center'
p3269
sg16
F-96.88457998997382
sg17
g2296
sg19
g71
sg21
S'TX'
p3270
sg23
S'1933 East Frankford Road, Suite 110'
p3271
sg25
F33.00025829948203
sg26
S'Institutional'
p3272
sba(igenerator
School
p3273
(dp3274
g3
S'www.cooley.edu'
p3275
sg5
S'Lansing'
p3276
sg7
S'cooley.edu'
p3277
sg9
g10
(S'\x07\xde\x0c\x0b\x02-\x15\x03\x14\xf6'
p3278
tp3279
Rp3280
sg14
S'Thomas M. Cooley Law School'
p3281
sg16
F-84.55394775938083
sg17
g2296
sg19
S'517-371-5140'
p3282
sg21
S'MI'
p3283
sg23
S'300 S Capitol Ave'
p3284
sg25
F42.730940608623314
sg26
S'Institutional'
p3285
sba(igenerator
School
p3286
(dp3287
g3
S'www.photocareers.com'
p3288
sg5
S'Moore'
p3289
sg7
S'photocareers.com'
p3290
sg9
g10
(S'\x07\xde\x0c\x0b\x02-\x16\x03\xd9!'
p3291
tp3292
Rp3293
sg14
S'Oklahoma School of Photography'
p3294
sg16
F-97.4959255
sg17
g2321
sg19
S'405-799-1411'
p3295
sg21
S'OK'
p3296
sg23
S'2306 N Moore Ave'
p3297
sg25
F35.355176
sg26
S'Institutional'
p3298
sba(igenerator
School
p3299
(dp3300
g3
S'www.gc.cuny.edu'
p3301
sg5
S'New York'
p3302
sg7
S'cuny.edu'
p3303
sg9
g10
(S'\x07\xde\x0c\x0b\x02-\x18\x05\xb7]'
p3304
tp3305
Rp3306
sg14
S'The Graduate School and University Center of the City University of New York'
p3307
sg16
F-73.9844469234859
sg17
g2296
sg19
S'212-817-7000'
p3308
sg21
S'NY'
p3309
sg23
S'365 Fifth Ave'
p3310
sg25
F40.67136015834575
sg26
S'Institutional'
p3311
sba(igenerator
School
p3312
(dp3313
g3
S'rogershairacademy.com'
p3314
sg5
S'Evansville'
p3315
sg7
S'rogershairacademy.com'
p3316
sg9
g10
(S'\x07\xde\x0c\x0b\x02-\x19\x06\x16\xce'
p3317
tp3318
Rp3319
sg14
S"Roger's Academy of Hair Design"
p3320
sg16
F-87.6109949
sg17
g2321
sg19
S'812-429-0110-2'
p3321
sg21
S'IN'
p3322
sg23
S'2903 Mt. Vernon Avenue'
p3323
sg25
F37.983597
sg26
S'Institutional'
p3324
sba(igenerator
School
p3325
(dp3326
g3
S'www.norwich.edu'
p3327
sg5
S'Northfield'
p3328
sg7
S'norwich.edu'
p3329
sg9
g10
(S'\x07\xde\x0c\x0b\x02-\x1a\x03\xbe\x18'
p3330
tp3331
Rp3332
sg14
S'Norwich University'
p3333
sg16
F-72.6612694464237
sg17
g2321
sg19
S'802-485-2000'
p3334
sg21
S'VT'
p3335
sg23
S'158 Harmon Drive'
p3336
sg25
F44.13917905
sg26
S'Institutional'
p3337
sba(igenerator
School
p3338
(dp3339
g3
S'www.ebts.edu'
p3340
sg5
S'King of Prussia'
p3341
sg7
S'ebts.edu'
p3342
sg9
g10
(S'\x07\xde\x0c\x0b\x02-\x1c\x05\xb2\x15'
p3343
tp3344
Rp3345
sg14
S'Palmer Theological Seminary of Eastern University'
p3346
sg16
F-75.41268314451071
sg17
g2296
sg19
S'610-896-5000'
p3347
sg21
S'PA'
p3348
sg23
S'588 N. Gulph Road'
p3349
sg25
F40.089728423828774
sg26
S'Institutional'
p3350
sba(igenerator
School
p3351
(dp3352
g3
S'www.personal.riverusers.com/~devoe/index.html'
p3353
sg5
S'Sierra Vista'
p3354
sg7
S'riverusers.com'
p3355
sg9
g10
(S'\x07\xde\x0c\x0b\x02-\x1e\x04\x87\xb3'
p3356
tp3357
Rp3358
sg14
S'DeVoe College of Beauty'
p3359
sg16
F-110.2921808955312
sg17
g2296
sg19
S'520-458-8660'
p3360
sg21
S'AZ'
p3361
sg23
S'750 Bartow Dr'
p3362
sg25
F31.553543130112416
sg26
S'Institutional'
p3363
sba(igenerator
School
p3364
(dp3365
g3
S'www.hcu.edu'
p3366
sg5
S'Florence'
p3367
sg7
S'hcu.edu'
p3368
sg9
g10
(S'\x07\xde\x0c\x0b\x02-\x1f\x01d\t'
p3369
tp3370
Rp3371
sg14
S'Heritage Christian University'
p3372
sg16
F-87.6675609
sg17
g2321
sg19
S'256-766-6610'
p3373
sg21
S'AL'
p3374
sg23
S'3625 Helton Dr'
p3375
sg25
F34.832479
sg26
S'Institutional'
p3376
sba(igenerator
School
p3377
(dp3378
g3
g71
sg5
S'Woodbridge'
p3379
sg7
Nsg9
g10
(S'\x07\xde\x0c\x0b\x02- \nF\xb3'
p3380
tp3381
Rp3382
sg14
S'Statements The Academy'
p3383
sg16
F-77.26448278944838
sg17
g2296
sg19
g71
sg21
S'VA'
p3384
sg23
S'12734 Darby Brooke Court'
p3385
sg25
F38.67600213539134
sg26
S'Institutional'
p3386
sba(igenerator
School
p3387
(dp3388
g3
S'www.weldingschool.com'
p3389
sg5
S'Tulsa'
p3390
sg7
S'weldingschool.com'
p3391
sg9
g10
(S'\x07\xde\x0c\x0b\x02-!\n\x8dG'
p3392
tp3393
Rp3394
sg14
S'Tulsa Welding School'
p3395
sg16
F-95.8377518
sg17
g2321
sg19
S'918-587-6789-221'
p3396
sg21
S'OK'
p3397
sg23
S'2545 E. 11th Street'
p3398
sg25
F36.1480075
sg26
S'Institutional'
p3399
sba(igenerator
School
p3400
(dp3401
g3
S'www.ttcmcminnville.edu'
p3402
sg5
S'McMinnville'
p3403
sg7
S'ttcmcminnville.edu'
p3404
sg9
g10
(S'\x07\xde\x0c\x0b\x02-#\x08gR'
p3405
tp3406
Rp3407
sg14
S'Tennessee College of Applied Technology - McMinnville'
p3408
sg16
F-85.74506212691483
sg17
g2296
sg19
S'931-473-5587'
p3409
sg21
S'TN'
p3410
sg23
S'241 Vo-Tech Drive'
p3411
sg25
F35.70044695116695
sg26
S'Institutional'
p3412
sba(igenerator
School
p3413
(dp3414
g3
g71
sg5
S'Fresno'
p3415
sg7
Nsg9
g10
(S'\x07\xde\x0c\x0b\x02-%\x08\x9eW'
p3416
tp3417
Rp3418
sg14
S'Willow International Community College Center'
p3419
sg16
F-119.72989324887362
sg17
g2296
sg19
g71
sg21
S'CA'
p3420
sg23
S'10309 North Willow Ave.'
p3421
sg25
F36.88506121050756
sg26
S'Institutional'
p3422
sba(igenerator
School
p3423
(dp3424
g3
S'www.mtsierra.edu'
p3425
sg5
S'Monrovia'
p3426
sg7
S'mtsierra.edu'
p3427
sg9
g10
(S"\x07\xde\x0c\x0b\x02-'\x08\x82\x01"
p3428
tp3429
Rp3430
sg14
S'Mt Sierra College'
p3431
sg16
F-118.00073048392397
sg17
g2296
sg19
S'626-873-2144'
p3432
sg21
S'CA'
p3433
sg23
S'101 E Huntington Dr'
p3434
sg25
F34.14054899873838
sg26
S'Institutional'
p3435
sba(igenerator
School
p3436
(dp3437
g3
S'www.ascc.edu'
p3438
sg5
S'Monroeville'
p3439
sg7
S'ascc.edu'
p3440
sg9
g10
(S'\x07\xde\x0c\x0b\x02-)\x00\x82T'
p3441
tp3442
Rp3443
sg14
S'Alabama Southern Community College'
p3444
sg16
F-87.32543091630299
sg17
g2296
sg19
S'251-575-3156-600'
p3445
sg21
S'AL'
p3446
sg23
S'2800 South Alabama Avenue'
p3447
sg25
F31.487327790746008
sg26
S'Institutional'
p3448
sba(igenerator
School
p3449
(dp3450
g3
S'www.uiowa.edu'
p3451
sg5
S'Iowa City'
p3452
sg7
S'uiowa.edu'
p3453
sg9
g10
(S'\x07\xde\x0c\x0b\x02-+\x00\x9a\xbf'
p3454
tp3455
Rp3456
sg14
S'University of Iowa'
p3457
sg16
F-91.53648250116572
sg17
g2296
sg19
S'319-335-3500'
p3458
sg21
S'IA'
p3459
sg23
S'101 Jessup Hall'
p3460
sg25
F41.66247870722765
sg26
S'Institutional'
p3461
sba(igenerator
School
p3462
(dp3463
g3
g71
sg5
S'Albany'
p3464
sg7
Nsg9
g10
(S'\x07\xde\x0c\x0b\x02--\x03\x82\xd3'
p3465
tp3466
Rp3467
sg14
S'The New School of Radio and Television'
p3468
sg16
F-73.75520746405243
sg17
g2296
sg19
g71
sg21
S'NY'
p3469
sg23
S'7 Harriman Campus Road'
p3470
sg25
F42.65155245498289
sg26
S'Institutional'
p3471
sba(igenerator
School
p3472
(dp3473
g3
S'Californiacareerschool.edu'
p3474
sg5
S'Anaheim'
p3475
sg7
S'californiacareerschool.edu'
p3476
sg9
g10
(S'\x07\xde\x0c\x0b\x02-/\x04\x1f\x1e'
p3477
tp3478
Rp3479
sg14
S'California Career School'
p3480
sg16
F-117.90659509808461
sg17
g2296
sg19
S'714-635-6585'
p3481
sg21
S'CA'
p3482
sg23
S'1100 Technology Cir'
p3483
sg25
F33.81909280219213
sg26
S'Institutional'
p3484
sba(igenerator
School
p3485
(dp3486
g3
S'www.uacch.edu'
p3487
sg5
S'Hope'
p3488
sg7
S'uacch.edu'
p3489
sg9
g10
(S'\x07\xde\x0c\x0b\x02)\x16\x0b_l'
p3490
tp3491
Rp3492
sg14
S'University of Arkansas Community College-Hope'
p3493
sg16
F-93.59335667826736
sg17
S'geopy.geocoders.arcgis'
p3494
sg19
S'870-722-8206'
p3495
sg21
S'AR'
p3496
sg23
S'2500 S Main'
p3497
sg25
F33.64271472640456
sg26
S'Institutional'
p3498
sba(igenerator
School
p3499
(dp3500
g3
g71
sg5
S'St. Charles'
p3501
sg7
Nsg9
g10
(S'\x07\xde\x0c\x0b\x02)\x18\x0c\xba\x9e'
p3502
tp3503
Rp3504
sg14
S'The Salon Professional Academy - St. Charles'
p3505
sg16
F-90.53983664704288
sg17
g3494
sg19
g71
sg21
S'MO'
p3506
sg23
S'3141 West Clay Street'
p3507
sg25
F38.788225880521054
sg26
S'Institutional'
p3508
sba(igenerator
School
p3509
(dp3510
g3
S'www.shepherds.edu'
p3511
sg5
S'Cary'
p3512
sg7
S'shepherds.edu'
p3513
sg9
g10
(S'\x07\xde\x0c\x0b\x02)\x19\n\xcau'
p3514
tp3515
Rp3516
sg14
S'Shepherds Theological Seminary'
p3517
sg16
F-78.7431869
sg17
S'geopy.geocoders.osm'
p3518
sg19
S'919-573-5350'
p3519
sg21
S'NC'
p3520
sg23
S'6051 Tryon Road'
p3521
sg25
F35.7436288
sg26
S'Institutional'
p3522
sba(igenerator
School
p3523
(dp3524
g3
g71
sg5
S'Kent'
p3525
sg7
Nsg9
g10
(S'\x07\xde\x0c\x0b\x02)\x1b\x0b\xb4\xc5'
p3526
tp3527
Rp3528
sg14
S'Montessori Teacher Preparation of Washington'
p3529
sg16
F-122.23607854169063
sg17
g3494
sg19
g71
sg21
S'WA'
p3530
sg23
S'318 3rd Avenue South'
p3531
sg25
F47.37920857701533
sg26
S'Institutional'
p3532
sba(igenerator
School
p3533
(dp3534
g3
g71
sg5
S'Stockbridge'
p3535
sg7
Nsg9
g10
(S'\x07\xde\x0c\x0b\x02)\x1c\t&\xd8'
p3536
tp3537
Rp3538
sg14
S'Southeastern Beauty School - Stockbridge'
p3539
sg16
F-84.2456669
sg17
g3518
sg19
g71
sg21
S'GA'
p3540
sg23
S'747 Davis Road'
p3541
sg25
F33.557357
sg26
S'Institutional'
p3542
sba(igenerator
School
p3543
(dp3544
g3
g71
sg5
S'Los Angeles'
p3545
sg7
Nsg9
g10
(S'\x07\xde\x0c\x0b\x02)"\x04\x8b\xa3'
p3546
tp3547
Rp3548
sg14
S'Kings Colleges USA, LLC'
p3549
sg16
F-118.33381279932053
sg17
g3494
sg19
S'323-963-5311'
p3550
sg21
S'CA'
p3551
sg23
S'1555 Cassil Place'
p3552
sg25
F34.09958124178195
sg26
S'Institutional'
p3553
sba(igenerator
School
p3554
(dp3555
g3
S'www.gadsdenstate.edu'
p3556
sg5
S'Gadsden'
p3557
sg7
S'gadsdenstate.edu'
p3558
sg9
g10
(S'\x07\xde\x0c\x0b\x02)#\x03\xf6\x14'
p3559
tp3560
Rp3561
sg14
S'Gadsden State Community College'
p3562
sg16
F-85.9960074
sg17
g3518
sg19
S'256-549-8200'
p3563
sg21
S'AL'
p3564
sg23
S'1001 George Wallace Dr'
p3565
sg25
F34.0044257
sg26
S'Institutional'
p3566
sba(igenerator
School
p3567
(dp3568
g3
S'www.nku.edu'
p3569
sg5
S'Highland Heights'
p3570
sg7
S'nku.edu'
p3571
sg9
g10
(S'\x07\xde\x0c\x0b\x02)$\x01|\x19'
p3572
tp3573
Rp3574
sg14
S'Northern Kentucky University'
p3575
sg16
F-84.460101
sg17
g3518
sg19
S'859-572-5100'
p3576
sg21
S'KY'
p3577
sg23
S'University Dr'
p3578
sg25
F39.0336528
sg26
S'Institutional'
p3579
sba(igenerator
School
p3580
(dp3581
g3
g71
sg5
S'Los Angeles'
p3582
sg7
Nsg9
g10
(S'\x07\xde\x0c\x0b\x02)&\x02\xb0\xe3'
p3583
tp3584
Rp3585
sg14
S'California ESL Language Academy'
p3586
sg16
F-118.3942914631798
sg17
g3494
sg19
S'424-225-2375'
p3587
sg21
S'CA'
p3588
sg23
S'6733 S. Sepulveda Blvd, Suite 100'
p3589
sg25
F33.97883247853713
sg26
S'Institutional'
p3590
sba(igenerator
School
p3591
(dp3592
g3
g71
sg5
S'Springfield'
p3593
sg7
Nsg9
g10
(S'\x07\xde\x0c\x0b\x02%\x05\x08\xe1\x14'
p3594
tp3595
Rp3596
sg14
S'Midwest Technical Institute'
p3597
sg16
F-89.5942181
sg17
S'geopy.geocoders.osm'
p3598
sg19
g71
sg21
S'IL'
p3599
sg23
S'2731 Farmers Market Road'
p3600
sg25
F39.8381256
sg26
S'Institutional'
p3601
sba(igenerator
School
p3602
(dp3603
g3
S'www.nds.edu'
p3604
sg5
S'New Orleans'
p3605
sg7
S'nds.edu'
p3606
sg9
g10
(S'\x07\xde\x0c\x0b\x02%\x06\x04/X'
p3607
tp3608
Rp3609
sg14
S'Notre Dame Seminary'
p3610
sg16
F-90.1072325
sg17
g3598
sg19
S'504-866-7426'
p3611
sg21
S'LA'
p3612
sg23
S'2901 South Carrollton Ave'
p3613
sg25
F29.9681944
sg26
S'Institutional'
p3614
sba(igenerator
School
p3615
(dp3616
g3
S'www.hccfl.edu'
p3617
sg5
S'Tampa'
p3618
sg7
S'hccfl.edu'
p3619
sg9
g10
(S'\x07\xde\x0c\x0b\x02%\x07\x08\x0b\xd8'
p3620
tp3621
Rp3622
sg14
S'Hillsborough Community College'
p3623
sg16
F-82.4562924331891
sg17
g3598
sg19
S'813-253-7000'
p3624
sg21
S'FL'
p3625
sg23
S'39 Columbia Drive'
p3626
sg25
F27.93483395
sg26
S'Institutional'
p3627
sba(igenerator
School
p3628
(dp3629
g3
g71
sg5
S'Clarksburg'
p3630
sg7
Nsg9
g10
(S'\x07\xde\x0c\x0b\x02%\x08\x0b\x8aK'
p3631
tp3632
Rp3633
sg14
S'Clarksburg Beauty Academy'
p3634
sg16
F-80.3388622
sg17
g3598
sg19
S'304-624-6475'
p3635
sg21
S'WV'
p3636
sg23
S'120 S 3rd St'
p3637
sg25
F39.2797557
sg26
S'Institutional'
p3638
sba(igenerator
School
p3639
(dp3640
g3
S'oru.edu'
p3641
sg5
S'Tulsa'
p3642
sg7
S'oru.edu'
p3643
sg9
g10
(S'\x07\xde\x0c\x0b\x02%\n\r\xd5\xc0'
p3644
tp3645
Rp3646
sg14
S'Oral Roberts University'
p3647
sg16
F-95.9576846184496
sg17
S'geopy.geocoders.arcgis'
p3648
sg19
S'918-495-6161'
p3649
sg21
S'OK'
p3650
sg23
S'7777 S Lewis'
p3651
sg25
F36.050496948276646
sg26
S'Institutional'
p3652
sba(igenerator
School
p3653
(dp3654
g3
g71
sg5
S'Grand Rapids'
p3655
sg7
Nsg9
g10
(S'\x07\xde\x0c\x0b\x02%\r\x0156'
p3656
tp3657
Rp3658
sg14
S'International Cosmetology Academy, LLC'
p3659
sg16
F-85.64315136364371
sg17
g3648
sg19
g71
sg21
S'MI'
p3660
sg23
S'940 28th Street SE'
p3661
sg25
F42.912752242523084
sg26
S'Institutional'
p3662
sba(igenerator
School
p3663
(dp3664
g3
S'www.photoshopuser.com'
p3665
sg5
S'Oldsmar'
p3666
sg7
S'photoshopuser.com'
p3667
sg9
g10
(S'\x07\xde\x0c\x0b\x02%\x0e\x00\x05\x03'
p3668
tp3669
Rp3670
sg14
S'KW Computer Training d/b/a National Association of Photoshop Professionals'
p3671
sg16
F-82.6564049
sg17
g3598
sg19
g71
sg21
S'FL'
p3672
sg23
S'333 Douglas Road East'
p3673
sg25
F28.041605
sg26
S'Institutional'
p3674
sba(igenerator
School
p3675
(dp3676
g3
g71
sg5
S'Phoenix'
p3677
sg7
Nsg9
g10
(S'\x07\xde\x0c\x0b\x02%\x0f\x02\x11C'
p3678
tp3679
Rp3680
sg14
S'Fortis College - Phoenix'
p3681
sg16
F-112.0437894
sg17
g3598
sg19
S'540-652-8364'
p3682
sg21
S'AZ'
p3683
sg23
S'555 North 18th Street'
p3684
sg25
F33.5124883
sg26
S'Institutional'
p3685
sba(igenerator
School
p3686
(dp3687
g3
S'www.trainfordialysis.com'
p3688
sg5
S'La Palma'
p3689
sg7
S'trainfordialysis.com'
p3690
sg9
g10
(S'\x07\xde\x0c\x0b\x02%\x11\x03d\xd7'
p3691
tp3692
Rp3693
sg14
S'Dialysis Training Institute, LLC'
p3694
sg16
F-118.03723620148878
sg17
g3648
sg19
S'714-670-6393'
p3695
sg21
S'CA'
p3696
sg23
S'7872 Walker Street, Suite 251'
p3697
sg25
F33.84784108200142
sg26
S'Institutional'
p3698
sba(igenerator
School
p3699
(dp3700
g3
g71
sg5
S'New York'
p3701
sg7
Nsg9
g10
(S'\x07\xde\x0c\x0b\x02%\x13\x07\xc2\x14'
p3702
tp3703
Rp3704
sg14
S'Focus Personal Training Institute'
p3705
sg16
F-74.00711668468642
sg17
g3648
sg19
g71
sg21
S'NY'
p3706
sg23
S'115 West 27th Street, 11th Floor'
p3707
sg25
F40.714550467431195
sg26
S'Institutional'
p3708
sba(igenerator
School
p3709
(dp3710
g3
S'www.dartmouth.edu'
p3711
sg5
S'Hanover'
p3712
sg7
S'dartmouth.edu'
p3713
sg9
g10
(S'\x07\xde\x0c\x0b\x02$\x04\x01v\xb3'
p3714
tp3715
Rp3716
sg14
S'Dartmouth College'
p3717
sg16
F-72.2925909
sg17
S'geopy.geocoders.osm'
p3718
sg19
S'603-646-2875'
p3719
sg21
S'NH'
p3720
sg23
S'Dartmouth College'
p3721
sg25
F43.7047927
sg26
S'Institutional'
p3722
sba(igenerator
School
p3723
(dp3724
g3
S'www.unm.edu'
p3725
sg5
S'Albuquerque'
p3726
sg7
S'unm.edu'
p3727
sg9
g10
(S'\x07\xde\x0c\x0b\x02$\x04\r\x16\x15'
p3728
tp3729
Rp3730
sg14
S'University of New Mexico'
p3731
sg16
F-106.620000388372
sg17
g3718
sg19
S'505-277-0111'
p3732
sg21
S'NM'
p3733
sg23
S'University of New Mexico'
p3734
sg25
F35.0853276
sg26
S'Institutional'
p3735
sba(igenerator
School
p3736
(dp3737
g3
S'www.daymarcollege.com'
p3738
sg5
S'Owensboro'
p3739
sg7
S'daymarcollege.com'
p3740
sg9
g10
(S'\x07\xde\x0c\x0b\x02$\x05\t\x02\xd2'
p3741
tp3742
Rp3743
sg14
S'Daymar College - Owensboro'
p3744
sg16
F-87.1478759
sg17
g3718
sg19
S'270-926-4040'
p3745
sg21
S'KY'
p3746
sg23
S'3361 Buckland Square'
p3747
sg25
F37.733505
sg26
S'Institutional'
p3748
sba(igenerator
School
p3749
(dp3750
g3
S'www.tamu.edu'
p3751
sg5
S'College Station'
p3752
sg7
S'tamu.edu'
p3753
sg9
g10
(S'\x07\xde\x0c\x0b\x02$\x06\n\xb4\x17'
p3754
tp3755
Rp3756
sg14
S'Texas A&M University'
p3757
sg16
F-96.3497574191073
sg17
g3718
sg19
S'979-845-3211'
p3758
sg21
S'TX'
p3759
sg23
S'Texas A&M University'
p3760
sg25
F30.6126997
sg26
S'Institutional'
p3761
sba(igenerator
School
p3762
(dp3763
g3
S'www.gallipoliscareercollege.com'
p3764
sg5
S'Gallipolis'
p3765
sg7
S'gallipoliscareercollege.com'
p3766
sg9
g10
(S'\x07\xde\x0c\x0b\x02$\x08\x0c\xfek'
p3767
tp3768
Rp3769
sg14
S'Gallipolis Career College'
p3770
sg16
F-82.25662391616004
sg17
S'geopy.geocoders.arcgis'
p3771
sg19
S'740-446-4367-10'
p3772
sg21
S'OH'
p3773
sg23
S'1176 Jackson Pke, Suite 312'
p3774
sg25
F38.842488420505276
sg26
S'Institutional'
p3775
sba(igenerator
School
p3776
(dp3777
g3
g71
sg5
S'Norristown'
p3778
sg7
Nsg9
g10
(S'\x07\xde\x0c\x0b\x02$\t\r\x93\x17'
p3779
tp3780
Rp3781
sg14
S'Professional Academy of Cosmetology'
p3782
sg16
F-75.3352119
sg17
g3718
sg19
g71
sg21
S'PA'
p3783
sg23
S'516 East Marshall Street'
p3784
sg25
F40.1145819
sg26
S'Institutional'
p3785
sba(igenerator
School
p3786
(dp3787
g3
S'rmec.dadeschools.net'
p3788
sg5
S'Miami'
p3789
sg7
S'dadeschools.net'
p3790
sg9
g10
(S'\x07\xde\x0c\x0b\x02$\n\x0f\x0bf'
p3791
tp3792
Rp3793
sg14
S'Robert Morgan Educational Center'
p3794
sg16
F-80.3927582
sg17
g3718
sg19
S'305-253-9920'
p3795
sg21
S'FL'
p3796
sg23
S'18180 SW 122nd Ave'
p3797
sg25
F25.7605706
sg26
S'Institutional'
p3798
sba(igenerator
School
p3799
(dp3800
g3
S'www.ibsdenton.com'
p3801
sg5
S'Denton'
p3802
sg7
S'ibsdenton.com'
p3803
sg9
g10
(S'\x07\xde\x0c\x0b\x02$\x0c\x03\x8c\xc1'
p3804
tp3805
Rp3806
sg14
S'International Business School - Denton'
p3807
sg16
F-97.1667538
sg17
g3718
sg19
g71
sg21
S'TX'
p3808
sg23
S'2006 West University Drive'
p3809
sg25
F33.2298971
sg26
S'Institutional'
p3810
sba(igenerator
School
p3811
(dp3812
g3
S'www.davisny.edu'
p3813
sg5
S'Johnson City'
p3814
sg7
S'davisny.edu'
p3815
sg9
g10
(S'\x07\xde\x0c\x0b\x02$\r\x03P '
p3816
tp3817
Rp3818
sg14
S'Davis College'
p3819
sg16
F-75.9665078
sg17
g3718
sg19
S'607-729-1581-400'
p3820
sg21
S'NY'
p3821
sg23
S'400 Riverside Drive'
p3822
sg25
F42.1077444
sg26
S'Institutional'
p3823
sba(igenerator
School
p3824
(dp3825
g3
g71
sg5
S'Rancho Cucamonga'
p3826
sg7
Nsg9
g10
(S'\x07\xde\x0c\x0b\x02$\x0f\x03\xedL'
p3827
tp3828
Rp3829
sg14
S'Baldy View Regional Occupational Program'
p3830
sg16
F-117.57046527435222
sg17
g3771
sg19
g71
sg21
S'CA'
p3831
sg23
S'8265 Aspen Avenue, Suite 100'
p3832
sg25
F34.10339529445832
sg26
S'Institutional'
p3833
sba.