(lp0
(igenerator
School
p1
(dp2
S'website'
p3
S''
p4
sS'city'
p5
S'Appleton'
p6
sS'domain'
p7
NsS'name'
p8
S'The Salon Professional Academy - Appleton'
p9
sS'longitude'
p10
F-88.4577173
sS'phone'
p11
g4
sS'state'
p12
S'WI'
p13
sS'address'
p14
S'3355 West College Avenue'
p15
sS'latitude'
p16
F44.26011279999999
sS'type'
p17
S'Institutional'
p18
sba(igenerator
School
p19
(dp20
g3
S'www.ccuniversity.edu'
p21
sg5
S'Cincinnati'
p22
sg7
S'ccuniversity.edu'
p23
sg8
S'Cincinnati Christian University'
p24
sg10
F-84.5546323
sg11
S'513-244-8100'
p25
sg12
S'OH'
p26
sg14
S'2700 Glenway Ave'
p27
sg16
F39.1124252
sg17
S'Institutional'
p28
sba(igenerator
School
p29
(dp30
g3
S'www.trenholmstate.edu'
p31
sg5
S'Montgomery'
p32
sg7
S'trenholmstate.edu'
p33
sg8
S'H Councill Trenholm State Technical College'
p34
sg10
F-86.34314599999999
sg11
S'334-420-4295'
p35
sg12
S'AL'
p36
sg14
S'1225 Air Base Blvd'
p37
sg16
F32.350042
sg17
S'Institutional'
p38
sba(igenerator
School
p39
(dp40
g3
S'www.pcci.edu'
p41
sg5
S'Pensacola'
p42
sg7
S'pcci.edu'
p43
sg8
S'Pensacola Christian College'
p44
sg10
F-87.232432
sg11
S'850-478-8496'
p45
sg12
S'FL'
p46
sg14
S'250 Brent Lane'
p47
sg16
F30.470791
sg17
S'Institutional'
p48
sba(igenerator
School
p49
(dp50
g3
S'www.empire.edu'
p51
sg5
S'Philadelphia'
p52
sg7
S'empire.edu'
p53
sg8
S'Empire Beauty School - Philadelphia'
p54
sg10
F-75.17166399999999
sg11
S'800-223-3271-2414'
p55
sg12
S'PA'
p56
sg14
S'2632 S Broad Street'
p57
sg16
F39.917471
sg17
S'Institutional'
p58
sba(igenerator
School
p59
(dp60
g3
S'www.ef.com/us'
p61
sg5
S'Boston'
p62
sg7
S'ef.com'
p63
sg8
S'EF International Schools of English'
p64
sg10
F-71.16336129999999
sg11
g4
sg12
S'MA'
p65
sg14
S'200 Lake Street'
p66
sg16
F42.3471999
sg17
S'Institutional'
p67
sba(igenerator
School
p68
(dp69
g3
S'www.remingtoncollege.edu/'
p70
sg5
S'San Diego'
p71
sg7
S'remingtoncollege.edu'
p72
sg8
S'Remington College - San Diego'
p73
sg10
F-117.1637378
sg11
S'619-686-8600'
p74
sg12
S'CA'
p75
sg14
S'123 Camino de La Reina Ste 100 N'
p76
sg16
F32.7649023
sg17
S'Institutional'
p77
sba(igenerator
School
p78
(dp79
g3
S'www.cptc.edu'
p80
sg5
S'Lakewood'
p81
sg7
S'cptc.edu'
p82
sg8
S'Clover Park Technical College'
p83
sg10
F-122.4979392
sg11
S'253-589-5678'
p84
sg12
S'WA'
p85
sg14
S'4500 Steilacoom Blvd SW'
p86
sg16
F47.1760978
sg17
S'Institutional'
p87
sba(igenerator
School
p88
(dp89
g3
S'www.metrostate.edu'
p90
sg5
S'Saint Paul'
p91
sg7
S'metrostate.edu'
p92
sg8
S'Metropolitan State University'
p93
sg10
F-93.0738563
sg11
S'651-793-1212'
p94
sg12
S'MN'
p95
sg14
S'700 E Seventh St'
p96
sg16
F44.9574726
sg17
S'Institutional'
p97
sba(igenerator
School
p98
(dp99
g3
S'www.csb.edu'
p100
sg5
S'York'
p101
sg7
S'csb.edu'
p102
sg8
S'Consolidated School of Business'
p103
sg10
F-76.756953
sg11
S'717-764-9550'
p104
sg12
S'PA'
p105
sg14
S'1605 Clugston Rd'
p106
sg16
F39.984673
sg17
S'Institutional'
p107
sba.