(dp0
S'x%5Fship%5Fto%5Fzip%5Fus'
p1
S''
p2
sS'.ASPXAUTH'
p3
S'7C6002759F6F0C8A0B2ACC08088F6EDE8EA1F10C279C090A4F4AC795DFB26D4B0BD077CD84742BB8EFF3F536F4033B4B8486721685BB97BE15C742B1331CEDE6341427537925B825C8846B89602BF73FBEB8D7320E1F65E7C195985D3C83F581AA6CDB1233A6C6F74ABE532BB080F29EBB4D4F84401678AE46A840031731DFDAFE6E815B3CBDA6A4C09463E0E1CE03E24BA067AC063CED1A751D9C0AF8CC6010E57A6133D1A40BEE0170A32DA260320EC8A5E73CB29CD3F2E312466AFD0B78C96AB0174C55065FA18080F2B7AFCD449122174A13'
p4
sS'CartID'
p5
S'C20774528'
p6
sS'x%5Fship%5Fto%5Fcountry'
p7
S'US'
p8
sS'ASP.NET_SessionId'
p9
S'443wepviipardry22vadykqo'
p10
sS'HeaderPage'
p11
S'B2C'
p12
sS'mono%5Fpickup'
p13
S'/cart|/checkout/checkoutstep1'
p14
sS'big1p'
p15
S'215132352.0.0000'
p16
sS'SavedLists'
p17
S'C20774528S'
p18
s.