(dp0
S'x%5Fship%5Fto%5Fzip%5Fus'
p1
S''
p2
sS'.ASPXAUTH'
p3
S'F73E0BC6716C52861DC0A8C54FCE5FCB0371C0FB50236EF9ADB55150D06F853130B6587E12ADB8D33C89828583FFB460B4B7D43E7A1972C749AB19774570F389D30A86284EDFF14CFFCF01C60526380350AD2E293C8BC034C8673B0A87CFD54B85AEA0CAE2F3026755CAB490B91F95E9D4502F444062DAAD90B7624F8736B991E47702846E553C199E532E6ED5EC47B1B388D87870A63D608AD7E67E9A941FE762EC65F4D1F1C7229FF50650CA7325C5535D6E16BD963F4081AA49FE961C2861AD0AC17723B11DB8E4415BBC1ACBC778E5DF1D4C'
p4
sS'x%5Fship%5Fto%5Fcountry'
p5
S'US'
p6
sS'ASP.NET_SessionId'
p7
S'0llv2ic40y4gh3elnrcq1r4t'
p8
sS'HeaderPage'
p9
S'B2C'
p10
sS'mono%5Fpickup'
p11
S'//checkout/checkoutstep1|/Cart'
p12
sS'big1p'
p13
S'231909568.0.0000'
p14
sS'SavedLists'
p15
S'C20799028S'
p16
s.